(dp0
S'Andreas'
p1
I4
sS'vanligafragor'
p2
I3
sS'Jakamoko'
p3
I2
sS'ghalsig'
p4
I1
sS'Spenderat'
p5
I2
sS'vetmerbalk'
p6
I1
sS'dert'
p7
I2
sS'dynamic'
p8
I4
sS'all'
p9
I26
sS'svennebanan'
p10
I1
sS'protest'
p11
I1
sS'Avancerade'
p12
I1
sS'andra'
p13
I6
sS'nstebostaden'
p14
I2
sS'verg'
p15
I1
sS'elva'
p16
I1
sS'resor'
p17
I1
sS'Temasajter'
p18
I3
sS'barnstj'
p19
I3
sS'fredrik'
p20
I1
sS'anette'
p21
I1
sS'tesplats'
p22
I6
sS'jorna'
p23
I2
sS'granskning'
p24
I2
sS'Klimathotet'
p25
I3
sS'Mitt'
p26
I3
sS'ventiler'
p27
I1
sS'svenskahjaltarbalken'
p28
I3
sS'semesterresor'
p29
I2
sS'verdana'
p30
I3
sS'mindre'
p31
I1
sS'spel'
p32
I13
sS'ndisen'
p33
I1
sS'under'
p34
I10
sS'leftNavigationSelectedPadding'
p35
I3
sS'Pekkari'
p36
I2
sS'hejdat'
p37
I2
sS'paff'
p38
I1
sS'minnesv'
p39
I2
sS'mystiska'
p40
I1
sS'jackor'
p41
I32
sS'onsubmit'
p42
I9
sS'bombdad'
p43
I1
sS'fourByThree'
p44
I12
sS'bredpilrammatch'
p45
I2
sS'utgivare'
p46
I6
sS'bergstrom'
p47
I2
sS'Bred'
p48
I2
sS'Afghaner'
p49
I2
sS'rnen'
p50
I3
sS'setAccount'
p51
I3
sS'roterar'
p52
I1
sS'kackerlacka'
p53
I1
sS'automatisk'
p54
I2
sS'Europas'
p55
I1
sS'aren'
p56
I1
sS'appar'
p57
I6
sS'naders'
p58
I1
sS'GI'
p59
I2
sS'look'
p60
I4
sS'Anderson'
p61
I1
sS'abGetIpadAbApp'
p62
I6
sS'abLeftNavigationToggle'
p63
I3
sS'kolsyrat'
p64
I4
sS'Gr'
p65
I4
sS'sexr'
p66
I1
sS'abFooterTip'
p67
I3
sS'rra'
p68
I1
sS'reg'
p69
I1
sS'Lanta'
p70
I1
sS'abStreamer'
p71
I247
sS'disc'
p72
I1
sS'SAKPROSA'
p73
I2
sS'pooler'
p74
I4
sS'dagens'
p75
I6
sS'abToolbarLogOutLink'
p76
I3
sS'abBoxBackgroundColor'
p77
I111
sS'Paul'
p78
I5
sS'upp'
p79
I10
sS'ckan'
p80
I1
sS'charter'
p81
I16
sS'jden'
p82
I1
sS'rtorna'
p83
I2
sS'Rekommenderat'
p84
I3
sS'reklam'
p85
I1
sS'Polen'
p86
I1
sS'klickmonsterbalk'
p87
I3
sS'ngen'
p88
I4
sS'AbTvUtils'
p89
I7
sS'ngel'
p90
I1
sS'Rapport'
p91
I3
sS'chef'
p92
I2
sS'Djuren'
p93
I2
sS'skriva'
p94
I1
sS'Sista'
p95
I6
sS'prisjakt'
p96
I22
sS'Hockey'
p97
I3
sS'nget'
p98
I1
sS'Autolista'
p99
I3
sS'galan'
p100
I2
sS'bilder'
p101
I12
sS'implemented'
p102
I3
sS'Korsn'
p103
I2
sS'bakgrunden'
p104
I2
sS'modeklubb'
p105
I1
sS'omedelbart'
p106
I3
sS'NYA'
p107
I2
sS'nej'
p108
I2
sS'bloggpriset'
p109
I3
sS'ned'
p110
I3
sS'selected'
p111
I12
sS'trodde'
p112
I2
sS'setSitePattern'
p113
I3
sS'xtparam'
p114
I9
sS'isLocked'
p115
I1
sS'kul'
p116
I4
sS'fossil'
p117
I1
sS'ers'
p118
I1
sS'new'
p119
I85
sS'tips'
p120
I9
sS'abToplist'
p121
I15
sS'ner'
p122
I23
sS'getMonth'
p123
I3
sS'tillvaxtposition'
p124
I6
sS'med'
p125
I115
sS'widget'
p126
I35
sS'inline'
p127
I3
sS'invirad'
p128
I2
sS'Padre'
p129
I1
sS'prata'
p130
I4
sS'flera'
p131
I4
sS'men'
p132
I15
sS'dret'
p133
I4
sS'here'
p134
I3
sS'vampyrpremi'
p135
I1
sS'Greene'
p136
I1
sS'biografi'
p137
I1
sS'senastenytt'
p138
I39
sS'Skyline'
p139
I1
sS'jade'
p140
I1
sS'mer'
p141
I11
sS'active'
p142
I9
sS'abFooterContainer'
p143
I3
sS'sidan'
p144
I2
sS'morgon'
p145
I1
sS'studie'
p146
I1
sS'hundra'
p147
I2
sS'juholt'
p148
I2
sS'kids'
p149
I8
sS'live'
p150
I1
sS'Stabilt'
p151
I2
sS'Extra'
p152
I2
sS'k'
p153
I84
sS'toaletten'
p154
I1
sS'sju'
p155
I2
sS'flygplanets'
p156
I1
sS'miljarder'
p157
I5
sS'fulltime'
p158
I16
sS'Andra'
p159
I2
sS'karin'
p160
I1
sS'browsing'
p161
I3
sS'dra'
p162
I4
sS'svante'
p163
I1
sS'Audi'
p164
I2
sS'WEBB'
p165
I9
sS'Koh'
p166
I4
sS'norsk'
p167
I1
sS'Efter'
p168
I4
sS'secure'
p169
I5
sS'campaign'
p170
I118
sS'Masterchef'
p171
I2
sS'godsakerna'
p172
I1
sS'Chiles'
p173
I1
sS'Trizze'
p174
I2
sS'miljonklipp'
p175
I6
sS'bussen'
p176
I4
sS'appVersion'
p177
I3
sS'uppk'
p178
I1
sS'tillsammans'
p179
I1
sS'abToplistLinkMore'
p180
I21
sS'Politikerkollen'
p181
I3
sS'ai'
p182
I1
sS'inifr'
p183
I1
sS'bra'
p184
I7
sS'Meny'
p185
I3
sS'refpartner'
p186
I3
sS'abToolbarLogOut'
p187
I3
sS'nker'
p188
I3
sS'acacac'
p189
I126
sS'stinkande'
p190
I1
sS'Express'
p191
I3
sS'xte'
p192
I2
sS'rtkvarnar'
p193
I1
sS'kl'
p194
I17
sS'bromsstr'
p195
I1
sS'ollesvenning'
p196
I12
sS'Killers'
p197
I2
sS'skicka'
p198
I2
sS'spektakul'
p199
I2
sS'Kristen'
p200
I1
sS'h'
p201
I610
sS'nken'
p202
I1
sS'Bekv'
p203
I2
sS'programmets'
p204
I1
sS'type'
p205
I277
sS'redesignbloggen'
p206
I9
sS'nka'
p207
I3
sS'Stf'
p208
I3
sS'xtsite'
p209
I3
sS'vidtar'
p210
I1
sS'sekvensen'
p211
I1
sS'tusentals'
p212
I1
sS'abToplistHourRadio'
p213
I9
sS'Stj'
p214
I2
sS'it'
p215
I6
sS'Ckul'
p216
I2
sS'vagnar'
p217
I2
sS'dyra'
p218
I1
sS'Invalid'
p219
I3
sS'V'
p220
I40
sS'unescape'
p221
I3
sS'dbef'
p222
I1
sS'td'
p223
I60
sS'abHeader'
p224
I3
sS'Wislander'
p225
I2
sS'md'
p226
I2
sS'Crazy'
p227
I2
sS'flora'
p228
I12
sS'ma'
p229
I3
sS'Cervenka'
p230
I4
sS'mc'
p231
I5
sS'mb'
p232
I1
sS'procent'
p233
I2
sS'Text'
p234
I16
sS'mo'
p235
I17
sS'LMS'
p236
I33
sS'mt'
p237
I3
sS'mv'
p238
I1
sS'mp'
p239
I3
sS'ms'
p240
I5
sS'Madrid'
p241
I1
sS'Kommunalr'
p242
I1
sS'ppet'
p243
I2
sS'my'
p244
I37
sS'landslag'
p245
I20
sS'erk'
p246
I1
sS'Lid'
p247
I1
sS'Servicelogga'
p248
I3
sS'Solresor'
p249
I4
sS'abArrowIcon'
p250
I365
sS'Bruns'
p251
I2
sS'intervjuat'
p252
I2
sS'JavaScript'
p253
I9
sS'Ralph'
p254
I2
sS'Jerry'
p255
I7
sS'felaktigt'
p256
I1
sS'frntl'
p257
I5
sS'kapitalismen'
p258
I2
sS'scrollbars'
p259
I24
sS'Lord'
p260
I1
sS'brottochstraff'
p261
I3
sS'tusen'
p262
I3
sS'Logger'
p263
I6
sS'absolute'
p264
I18
sS'morot'
p265
I2
sS'utlandet'
p266
I1
sS'end'
p267
I39
sS'jenniferwegerup'
p268
I8
sS'hon'
p269
I10
sS'kallare'
p270
I2
sS'travel'
p271
I67
sS'rfattaren'
p272
I1
sS'Kan'
p273
I7
sS'flygbiljetter'
p274
I1
sS'gillar'
p275
I9
sS'dummyPlayerClickDivId'
p276
I1
sS'hos'
p277
I5
sS'Skolgranskning'
p278
I3
sS'Prisjakt'
p279
I3
sS'Beslutet'
p280
I1
sS'Oddset'
p281
I2
sS'config'
p282
I33
sS'halloumikung'
p283
I1
sS'A'
p284
I55
sS'Reklamkampanj'
p285
I1
sS'lan'
p286
I2
sS'fever'
p287
I2
sS'ovv'
p288
I3
sS'description'
p289
I3
sS'inrikes'
p290
I21
sS'laddaner'
p291
I15
sS'Cnyh'
p292
I10
sS'Artiklar'
p293
I3
sS'abSesamInputText'
p294
I9
sS'Morris'
p295
I1
sS'tunnelbanan'
p296
I3
sS'djurnatur'
p297
I15
sS'Unibet'
p298
I6
sS'nika'
p299
I3
sS'CSI'
p300
I5
sS'Reese'
p301
I2
sS'Krokodilj'
p302
I1
sS'ffade'
p303
I1
sS'bdf'
p304
I1
sS'talet'
p305
I1
sS'abTopOfPage'
p306
I6
sS'tvnuchsel'
p307
I6
sS'falk'
p308
I2
sS'All'
p309
I1
sS'snabel'
p310
I2
sS'chokladpuff'
p311
I2
sS'abAdPlacementTillvaxtposition'
p312
I3
sS'Veckan'
p313
I2
sS'grekiska'
p314
I1
sS'Senaste'
p315
I15
sS'korgladje'
p316
I3
sS'plagg'
p317
I1
sS'Skandalerna'
p318
I1
sS'charterflyget'
p319
I4
sS'arbetsgivare'
p320
I1
sS'alias'
p321
I51
sS'abSesamSearchEmptyDefaultText'
p322
I18
sS'krockar'
p323
I2
sS'Thailands'
p324
I2
sS'DynamicIframe'
p325
I4
sS'ordet'
p326
I2
sS'deserterar'
p327
I1
sS'order'
p328
I3
sS'jlig'
p329
I2
sS'HELIOS'
p330
I60
sS'vart'
p331
I1
sS'Spelstudion'
p332
I1
sS'forsakring'
p333
I1
sS'diagnos'
p334
I2
sS'TRUS'
p335
I2
sS'Selected'
p336
I3
sS'zeldaPUFF'
p337
I1
sS'abToplistContent'
p338
I3
sS'vitt'
p339
I2
sS'xi'
p340
I3
sS'vara'
p341
I6
sS'rnkoll'
p342
I1
sS'cfdfe'
p343
I1
sS'sedda'
p344
I1
sS'naden'
p345
I5
sS'Misstaget'
p346
I2
sS'kassan'
p347
I1
sS'bankelitens'
p348
I2
sS'some'
p349
I3
sS'Sebastian'
p350
I1
sS'Partiet'
p351
I2
sS'img'
p352
I608
sS'setUrlExceptions'
p353
I1
sS'rekord'
p354
I1
sS'sifomedia'
p355
I3
sS'Kronors'
p356
I2
sS'Beck'
p357
I4
sS'Observe'
p358
I1
sS'straff'
p359
I5
sS'tipsen'
p360
I1
sS'rasistbr'
p361
I1
sS'nytt'
p362
I18
sS'ordforande'
p363
I2
sS'blockbox'
p364
I51
sS'hidden'
p365
I26
sS'citigroup'
p366
I2
sS'Nederb'
p367
I3
sS'melodifestivalen'
p368
I3
sS'split'
p369
I3
sS'lskad'
p370
I3
sS'vikten'
p371
I1
sS'startar'
p372
I4
sS'Kids'
p373
I6
sS'jningskr'
p374
I2
sS'Cab'
p375
I1
sS'banderollPUFF'
p376
I2
sS'Aftonbladets'
p377
I19
sS'Ladda'
p378
I14
sS'Thomas'
p379
I2
sS'TITTARFAVORIT'
p380
I1
sS'Volvo'
p381
I3
sS'break'
p382
I3
sS'bang'
p383
I3
sS'xtpage'
p384
I3
sS'Arrow'
p385
I365
sS'bisarra'
p386
I1
sS'Scanpix'
p387
I6
sS'livstid'
p388
I1
sS'miljon'
p389
I5
sS'bank'
p390
I7
sS'makabert'
p391
I2
sS'underkl'
p392
I1
sS'Fellaini'
p393
I1
sS'Torsdag'
p394
I3
sS'fiskeg'
p395
I1
sS'lustfyllda'
p396
I6
sS'l'
p397
I90
sS'katten'
p398
I1
sS'Milan'
p399
I4
sS'Judys'
p400
I1
sS'bfeee'
p401
I1
sS'abAdPlacementTicker'
p402
I3
sS'abAdInterstitial'
p403
I3
sS'sida'
p404
I7
sS'Helsida'
p405
I9
sS'bone'
p406
I1
sS'costello'
p407
I2
sS'Wildfire'
p408
I2
sS'templates'
p409
I4
sS'Elton'
p410
I1
sS'Resdagboken'
p411
I3
sS'liga'
p412
I2
sS'loketa'
p413
I1
sS'Motorsport'
p414
I4
sS'enorm'
p415
I2
sS'mda'
p416
I4
sS'gunne'
p417
I1
sS'topright'
p418
I3
sS'Science'
p419
I1
sS'skins'
p420
I9
sS'ligt'
p421
I2
sS'terskan'
p422
I1
sS'webben'
p423
I4
sS'abRelatedBoxRight'
p424
I63
sS'logc'
p425
I3
sS'rleken'
p426
I1
sS'logo'
p427
I3
sS'flashWmode'
p428
I1
sS'samtalet'
p429
I1
sS'Type'
p430
I3
sS'ring'
p431
I2
sS'ENDAST'
p432
I2
sS'pamparna'
p433
I2
sS'Solbadande'
p434
I2
sS'BEGIN'
p435
I9
sS'gon'
p436
I4
sS'rr'
p437
I2
sS'rs'
p438
I5
sS'Skriv'
p439
I5
sS'negativ'
p440
I1
sS'Hyresg'
p441
I2
sS'Wollin'
p442
I1
sS'rd'
p443
I11
sS'abTvArticlePlayerHeadline'
p444
I1
sS'rf'
p445
I8
sS'abMultiColContainer'
p446
I37
sS'BLOGGLOGGA'
p447
I9
sS'elitseriejumbon'
p448
I2
sS'rc'
p449
I13
sS'rl'
p450
I1
sS'got'
p451
I1
sS'rn'
p452
I13
sS'ro'
p453
I2
sS'Rockbj'
p454
I3
sS'gor'
p455
I3
sS'Tyres'
p456
I6
sS'foundation'
p457
I1
sS'Roligaste'
p458
I1
sS'veta'
p459
I2
sS'Anka'
p460
I1
sS'Trafikens'
p461
I2
sS'Ekstr'
p462
I2
sS'sextics'
p463
I2
sS'Gills'
p464
I1
sS'Sajtchef'
p465
I3
sS'standard'
p466
I3
sS'tillbaka'
p467
I3
sS'mdes'
p468
I1
sS'historierna'
p469
I1
sS'Stockholmsbomb'
p470
I1
sS'W'
p471
I3
sS'Akut'
p472
I2
sS'Viktklubb'
p473
I7
sS'Onsdag'
p474
I3
sS'topleft'
p475
I3
sS'mamman'
p476
I2
sS'logging'
p477
I3
sS'Vid'
p478
I2
sS'Vin'
p479
I1
sS'ddades'
p480
I3
sS'hmed'
p481
I2
sS'dragrace'
p482
I2
sS'rockbjornen'
p483
I3
sS'BSCA'
p484
I2
sS'att'
p485
I109
sS'khaolakpilram'
p486
I1
sS'Khouri'
p487
I1
sS'Mystiskt'
p488
I2
sS'abRelatedBoxLeft'
p489
I35
sS'JAPAN'
p490
I2
sS'Fwww'
p491
I15
sS'Krokodilen'
p492
I2
sS'NADEN'
p493
I2
sS'nyheter'
p494
I445
sS'semestern'
p495
I2
sS'kaktus'
p496
I2
sS'hd'
p497
I1
sS'Flera'
p498
I1
sS'render'
p499
I1
sS'bcbbc'
p500
I3
sS'Activity'
p501
I2
sS'Ingen'
p502
I2
sS'mmiga'
p503
I1
sS'Fight'
p504
I1
sS'Y'
p505
I20
sS'intrang'
p506
I4
sS'timmen'
p507
I3
sS'Lak'
p508
I2
sS'Inget'
p509
I3
sS'navigator'
p510
I9
sS'ndistr'
p511
I1
sS'daec'
p512
I1
sS'vaken'
p513
I2
sS'fragalinn'
p514
I12
sS'service'
p515
I6
sS'abTeaserImageColumn'
p516
I216
sS'top'
p517
I155
sS'Idiotf'
p518
I2
sS'ingen'
p519
I3
sS'Mest'
p520
I7
sS'Testa'
p521
I6
sS'Larssons'
p522
I2
sS'ton'
p523
I1
sS'inget'
p524
I3
sS'kvitteringen'
p525
I2
sS'kid'
p526
I1
sS'megapuffar'
p527
I3
sS'tog'
p528
I3
sS'bostadinredning'
p529
I23
sS'fotobockerdragare'
p530
I2
sS'ntar'
p531
I2
sS'B'
p532
I214
sS'exfrun'
p533
I1
sS'navset'
p534
I3
sS'olycksh'
p535
I2
sS'rldskrigets'
p536
I2
sS'abToplistViewed'
p537
I3
sS'D'
p538
I344
sS'Qaida'
p539
I2
sS'trupp'
p540
I2
sS'paket'
p541
I12
sS'toplistView'
p542
I6
sS'Kalla'
p543
I2
sS'rasar'
p544
I6
sS'gst'
p545
I4
sS'mojliga'
p546
I3
sS'Ramlar'
p547
I2
sS'blalank'
p548
I2
sS'target'
p549
I734
sS'keyword'
p550
I41
sS'pplen'
p551
I2
sS'avundsjuka'
p552
I1
sS'entreprenorer'
p553
I1
sS'Australien'
p554
I4
sS'Sex'
p555
I2
sS'innerElem'
p556
I9
sS'varje'
p557
I8
sS'konkurrenterna'
p558
I1
sS'DagensLookPilram'
p559
I2
sS'stenrik'
p560
I2
sS'Sen'
p561
I2
sS'medlem'
p562
I6
sS'Iphone'
p563
I7
sS'Demonstranter'
p564
I1
sS'fashion'
p565
I3
sS'chockar'
p566
I3
sS'januari'
p567
I1
sS'Midsomer'
p568
I2
sS'mina'
p569
I6
sS'modern'
p570
I2
sS'omgbalk'
p571
I1
sS'Mamman'
p572
I2
sS'elem'
p573
I18
sS'rat'
p574
I1
sS'skivor'
p575
I1
sS'ras'
p576
I5
sS'Gert'
p577
I1
sS'Nytt'
p578
I3
sS'fasta'
p579
I1
sS'tycks'
p580
I2
sS'Law'
p581
I2
sS'Williams'
p582
I2
sS'ray'
p583
I13
sS'fredag'
p584
I2
sS'Versacekl'
p585
I1
sS'magnus'
p586
I1
sS'billigaste'
p587
I3
sS'listbox'
p588
I3
sS'Levande'
p589
I9
sS'abImageBlockLeft'
p590
I12
sS'Kvarnsmyr'
p591
I2
sS'Historia'
p592
I6
sS'maxi'
p593
I1
sS'aftonbladet'
p594
I2699
sS'champis'
p595
I2
sS'Kennedys'
p596
I2
sS'rider'
p597
I1
sS'reumatism'
p598
I1
sS'historisk'
p599
I1
sS'verkar'
p600
I2
sS'tryckte'
p601
I1
sS'abLink'
p602
I590
sS'Andersson'
p603
I2
sS'tvingas'
p604
I1
sS'braun'
p605
I4
sS'Jobbet'
p606
I3
sS'mario'
p607
I1
sS'Cmod'
p608
I1
sS'svartvit'
p609
I1
sS'Klubben'
p610
I1
sS'letter'
p611
I3
sS'Tema'
p612
I5
sS'juholts'
p613
I2
sS'Oklart'
p614
I1
sS'typ'
p615
I2
sS'Minecraft'
p616
I1
sS'ndagslista'
p617
I2
sS'reapris'
p618
I1
sS'Prisas'
p619
I1
sS'abMainSiteOuter'
p620
I6
sS'Lule'
p621
I1
sS'Ryssland'
p622
I2
sS'camp'
p623
I1
sS'm'
p624
I84
sS'dog'
p625
I2
sS'rbjuden'
p626
I1
sS'spelar'
p627
I1
sS'Resfynda'
p628
I2
sS'preloadOverlay'
p629
I1
sS'tjanstebostaden'
p630
I6
sS'Lanzarote'
p631
I6
sS'Skandia'
p632
I2
sS'dragningen'
p633
I2
sS'arla'
p634
I3
sS'Sofis'
p635
I25
sS'nedat'
p636
I3
sS'lpa'
p637
I2
sS'svag'
p638
I2
sS'abPilramContainer'
p639
I9
sS'janhelinmini'
p640
I3
sS'kraschar'
p641
I4
sS'bomb'
p642
I2
sS'sparkades'
p643
I2
sS'bottomright'
p644
I3
sS'abStreamerInner'
p645
I234
sS'marsianer'
p646
I1
sS'random'
p647
I3
sS'Helvetica'
p648
I6
sS'abFooterUpArrow'
p649
I3
sS'Arabernas'
p650
I2
sS'abSearchInfoText'
p651
I3
sS'radio'
p652
I14
sS'attackerande'
p653
I2
sS'abHeaderAdStreamer'
p654
I6
sS'sarbrev'
p655
I2
sS'keywords'
p656
I3
sS'protocol'
p657
I3
sS'Anne'
p658
I3
sS'samhalleochpolitik'
p659
I27
sS'Naken'
p660
I1
sS'senare'
p661
I2
sS'och'
p662
I132
sS'Bil'
p663
I11
sS'layout'
p664
I3
sS'wolfganghansson'
p665
I5
sS'Big'
p666
I9
sS'lskar'
p667
I1
sS'vinna'
p668
I5
sS'matkasse'
p669
I14
sS'LIVE'
p670
I1
sS'version'
p671
I7
sS'skjuta'
p672
I1
sS'benen'
p673
I1
sS'Definitivt'
p674
I1
sS'magnussundholm'
p675
I4
sS'Prisras'
p676
I1
sS'Lagrell'
p677
I2
sS'jesbladets'
p678
I6
sS'do'
p679
I3
sS'dl'
p680
I8
sS'bottomleft'
p681
I3
sS'andras'
p682
I6
sS'abAdPlacementOutsider'
p683
I9
sS'df'
p684
I6
sS'skam'
p685
I2
sS'dd'
p686
I24
sS'de'
p687
I102
sS'db'
p688
I8
sS'dc'
p689
I66
sS'stor'
p690
I3
sS'da'
p691
I16
sS'motorsag'
p692
I2
sS'terrorn'
p693
I1
sS'nserna'
p694
I2
sS'Alings'
p695
I1
sS'plats'
p696
I3
sS'stod'
p697
I2
sS'ben'
p698
I1
sS'dt'
p699
I18
sS'du'
p700
I92
sS'dr'
p701
I3
sS'ds'
p702
I3
sS'lyssna'
p703
I3
sS'rekommendation'
p704
I3
sS'burk'
p705
I1
sS'Bostadsinbrotten'
p706
I1
sS'Wild'
p707
I1
sS'Moore'
p708
I2
sS'Allinclusivebred'
p709
I13
sS'Webbshop'
p710
I3
sS'Twilight'
p711
I6
sS'Moldavien'
p712
I2
sS'domaren'
p713
I2
sS'snabbfraga'
p714
I3
sS'Rio'
p715
I1
sS'kungaparet'
p716
I2
sS'RSEN'
p717
I3
sS'bac'
p718
I3
sS'Clashkamp'
p719
I2
sS'gIfIwo'
p720
I3
sS'mittklipp'
p721
I1
sS'implication'
p722
I3
sS'twilighttatuPUFF'
p723
I1
sS'lyxresor'
p724
I1
sS'veteranen'
p725
I2
sS'blev'
p726
I12
sS'Jackson'
p727
I1
sS'tidningen'
p728
I3
sS'disen'
p729
I3
sS'spelkonsolen'
p730
I2
sS'supervinsten'
p731
I1
sS'skulle'
p732
I6
sS'avskyv'
p733
I4
sS'Bostad'
p734
I7
sS'light'
p735
I6
sS'abPlusCreateCookie'
p736
I3
sS'Matkasse'
p737
I3
sS'Spel'
p738
I3
sS'Flickan'
p739
I1
sS'radius'
p740
I27
sS'result'
p741
I74
sS'Tahrir'
p742
I1
sS'webbtv'
p743
I209
sS'Performance'
p744
I2
sS'Android'
p745
I3
sS'John'
p746
I3
sS'kryssbild'
p747
I3
sS'best'
p748
I2
sS'granska'
p749
I1
sS'samst'
p750
I1
sS'nsowska'
p751
I2
sS'Mammans'
p752
I1
sS'Tatueringen'
p753
I1
sS'Gameday'
p754
I2
sS'rare'
p755
I6
sS'Anna'
p756
I4
sS'Albin'
p757
I2
sS'rlurar'
p758
I2
sS'experten'
p759
I3
sS'figur'
p760
I2
sS'sista'
p761
I3
sS'krokodilen'
p762
I2
sS'Hakon'
p763
I1
sS'djuren'
p764
I1
sS'kackerlackor'
p765
I2
sS'kullager'
p766
I1
sS'discovery'
p767
I12
sS'Stoppade'
p768
I2
sS'C'
p769
I103
sS'NFL'
p770
I2
sS'omg'
p771
I5
sS'latestTabFirst'
p772
I6
sS'toolbarMenuMyPage'
p773
I3
sS'omd'
p774
I2
sS'Wellness'
p775
I18
sS'Cash'
p776
I1
sS'imgSrc'
p777
I1
sS'gang'
p778
I2
sS'misstag'
p779
I3
sS'rlusten'
p780
I4
sS'Utbildning'
p781
I3
sS'wt'
p782
I1
sS'socialminister'
p783
I3
sS'fettf'
p784
I2
sS'news'
p785
I3
sS'rslag'
p786
I1
sS'novbast'
p787
I1
sS'hamn'
p788
I1
sS'foer'
p789
I4
sS'ecc'
p790
I2
sS'HITS'
p791
I3
sS'Peter'
p792
I2
sS'abAdPlacementStickyHolder'
p793
I3
sS'Dance'
p794
I3
sS'regering'
p795
I4
sS'nger'
p796
I4
sS'utifr'
p797
I2
sS'Blocket'
p798
I3
sS'Lasse'
p799
I1
sS'teasers'
p800
I3
sS'kommer'
p801
I10
sS'guy'
p802
I1
sS'eaeLoggerUrl'
p803
I3
sS'faces'
p804
I3
sS'Navy'
p805
I1
sS'supererbjudande'
p806
I2
sS'login'
p807
I9
sS'babyn'
p808
I2
sS'com'
p809
I214
sS'svensk'
p810
I8
sS'hysteri'
p811
I2
sS'sak'
p812
I1
sS'utbildningarna'
p813
I4
sS'Modo'
p814
I1
sS'xtor'
p815
I179
sS'betting'
p816
I1
sS'Euro'
p817
I1
sS'height'
p818
I697
sS'ndisarna'
p819
I1
sS'interakt'
p820
I8
sS'Ismaskinisten'
p821
I1
sS'stens'
p822
I1
sS'Court'
p823
I1
sS'mobilversion'
p824
I3
sS'FREDRIk'
p825
I2
sS'helgonf'
p826
I1
sS'bingo'
p827
I1
sS'eurosport'
p828
I12
sS'strong'
p829
I662
sS'abPilramContainerOuter'
p830
I6
sS'beee'
p831
I2
sS'mmer'
p832
I2
sS'fri'
p833
I4
sS'abToplistShowLess'
p834
I3
sS'been'
p835
I3
sS'socialistiskt'
p836
I2
sS'otrogen'
p837
I1
sS'Wall'
p838
I1
sS'abAdPadbox'
p839
I3
sS'Ishockey'
p840
I2
sS'videoIsLive'
p841
I1
sS'Kronor'
p842
I2
sS'rdighet'
p843
I1
sS'nkande'
p844
I2
sS'donatella'
p845
I1
sS'buildTaxonomy'
p846
I6
sS'hetaste'
p847
I1
sS'Delgada'
p848
I3
sS'jdpunkter'
p849
I2
sS'rem'
p850
I1
sS'micke'
p851
I1
sS'superettan'
p852
I12
sS'llan'
p853
I4
sS'CC'
p854
I1
sS'kott'
p855
I3
sS'Alestest'
p856
I2
sS'Halv'
p857
I1
sS'attacken'
p858
I2
sS'Dammsugare'
p859
I2
sS'kte'
p860
I1
sS'nniskor'
p861
I2
sS'Inloggningsbalk'
p862
I6
sS'skolgranskning'
p863
I3
sS'spik'
p864
I1
sS'spartips'
p865
I2
sS'Gaultier'
p866
I2
sS'Sensing'
p867
I2
sS'kvinnan'
p868
I2
sS'knarkkungar'
p869
I2
sS'storslamen'
p870
I2
sS'Pattingson'
p871
I1
sS'clientstep'
p872
I3
sS'fcea'
p873
I1
sS'klippt'
p874
I2
sS'Ca'
p875
I6
sS'mndens'
p876
I2
sS'onSuccess'
p877
I9
sS'air'
p878
I7
sS'forsa'
p879
I1
sS'signerade'
p880
I1
sS'elpriser'
p881
I9
sS'typeof'
p882
I129
sS'jder'
p883
I2
sS'mobileVideoFormats'
p884
I1
sS'resguide'
p885
I2
sS'property'
p886
I3
sS'RegisterClick'
p887
I6
sS'PUBLIC'
p888
I3
sS'Collins'
p889
I1
sS'reaktioner'
p890
I1
sS'ckliga'
p891
I2
sS'mERIgk'
p892
I3
sS'kvinnor'
p893
I5
sS'multifunktionsknapp'
p894
I2
sS'is'
p895
I2
sS'mazariner'
p896
I2
sS'ddade'
p897
I2
sS'magiska'
p898
I2
sS'player'
p899
I18
sS'dokument'
p900
I2
sS'tvnuvs'
p901
I9
sS'Ivarsson'
p902
I2
sS'brott'
p903
I3
sS'in'
p904
I40
sS'leftNavigationGroupTitle'
p905
I12
sS'teknik'
p906
I1
sS'abTvUtils'
p907
I1
sS'exklusiv'
p908
I1
sS'Syrianska'
p909
I4
sS'id'
p910
I642
sS'ig'
p911
I4
sS'if'
p912
I177
sS'abToplistExpanded'
p913
I6
sS'Recept'
p914
I3
sS'sarpaneler'
p915
I3
sS'debuten'
p916
I2
sS'dhj'
p917
I3
sS'demonstration'
p918
I2
sS'datorer'
p919
I6
sS'jerry'
p920
I2
sS'Stor'
p921
I2
sS'Bordtennis'
p922
I2
sS'Svart'
p923
I8
sS'returnPath'
p924
I12
sS'Avtal'
p925
I1
sS'Insomnia'
p926
I1
sS'mostReadView'
p927
I24
sS'lotterna'
p928
I1
sS'inloggning'
p929
I4
sS'pekas'
p930
I1
sS'elefant'
p931
I4
sS'Room'
p932
I1
sS'abPlusTopToolBar'
p933
I3
sS'Fredriks'
p934
I3
sS'ensucce'
p935
I1
sS'Annonsera'
p936
I3
sS'VM'
p937
I3
sS'vittnar'
p938
I1
sS'Angeles'
p939
I2
sS'NOT'
p940
I6
sS'BELOW'
p941
I3
sS'skickades'
p942
I1
sS'tunn'
p943
I2
sS'Kadhammars'
p944
I1
sS'hans'
p945
I6
sS'Card'
p946
I1
sS'klipp'
p947
I1
sS'niv'
p948
I2
sS'sasong'
p949
I3
sS'camping'
p950
I1
sS'passagerare'
p951
I2
sS'finska'
p952
I2
sS'Vi'
p953
I16
sS'kampanj'
p954
I153
sS'mypage'
p955
I3
sS'stressen'
p956
I1
sS'Hilton'
p957
I2
sS'Snacka'
p958
I1
sS'lyxgods'
p959
I1
sS'rerna'
p960
I2
sS'abInteract'
p961
I65
sS'the'
p962
I18
sS'Molly'
p963
I2
sS'Mobil'
p964
I15
sS'sagickdetsen'
p965
I22
sS'xlande'
p966
I1
sS'left'
p967
I241
sS'viktiga'
p968
I2
sS'Bingo'
p969
I1
sS'trackPageLoadTime'
p970
I3
sS'Nordeas'
p971
I4
sS'getArticleKeywords'
p972
I102
sS'just'
p973
I3
sS'unik'
p974
I2
sS'Destination'
p975
I16
sS'bytbil'
p976
I12
sS'fff'
p977
I30
sS'godk'
p978
I1
sS'kraftiga'
p979
I1
sS'skatter'
p980
I2
sS'plast'
p981
I2
sS'mobileLiveUrlIpad'
p982
I1
sS'Horoskop'
p983
I3
sS'yes'
p984
I11
sS'abSidbottenContainer'
p985
I3
sS'VL'
p986
I1
sS'noscript'
p987
I15
sS'Stapelvara'
p988
I1
sS'JEX'
p989
I1
sS'vid'
p990
I3
sS'han'
p991
I23
sS'aktie'
p992
I5
sS'fraga'
p993
I3
sS'Stockholmsderbyt'
p994
I2
sS'playerMode'
p995
I1
sS'Motala'
p996
I1
sS'huvud'
p997
I6
sS'aktiv'
p998
I2
sS'ok'
p999
I1
sS'ppnade'
p1000
I2
sS'har'
p1001
I47
sS'rabattkod'
p1002
I1
sS'adress'
p1003
I2
sS'granskar'
p1004
I2
sS'experter'
p1005
I2
sS'fulltr'
p1006
I1
sS'loadAd'
p1007
I60
sS'OLLE'
p1008
I4
sS'rna'
p1009
I3
sS'Tre'
p1010
I8
sS'tthet'
p1011
I1
sS'lagom'
p1012
I2
sS'modellerna'
p1013
I2
sS'ishockey'
p1014
I3
sS'dagar'
p1015
I1
sS'ojvilkenvecka'
p1016
I27
sS'background'
p1017
I340
sS'fiasko'
p1018
I1
sS'rns'
p1019
I6
sS'ndis'
p1020
I3
sS'faktiskt'
p1021
I1
sS'rnv'
p1022
I3
sS'ldringsv'
p1023
I1
sS'NORGE'
p1024
I2
sS'vattenfall'
p1025
I6
sS'Skidhj'
p1026
I4
sS'Dalborg'
p1027
I2
sS'mozzarellafalu'
p1028
I2
sS'ladda'
p1029
I6
sS'Finns'
p1030
I3
sS'lja'
p1031
I2
sS'godis'
p1032
I2
sS'Arg'
p1033
I1
sS'Health'
p1034
I1
sS'hund'
p1035
I3
sS'angelholm'
p1036
I6
sS'sexlek'
p1037
I1
sS'syrien'
p1038
I1
sS'formular'
p1039
I3
sS'www'
p1040
I2350
sS'right'
p1041
I148
sS'sectionUniqueName'
p1042
I3
sS'dimitri'
p1043
I2
sS'deal'
p1044
I14
sS'viss'
p1045
I1
sS'superdatorn'
p1046
I2
sS'hemmasnickare'
p1047
I3
sS'bort'
p1048
I5
sS'HV'
p1049
I3
sS'dead'
p1050
I2
sS'jennifer'
p1051
I2
sS'abAdsHeliosUtil'
p1052
I306
sS'eken'
p1053
I1
sS'Italia'
p1054
I1
sS'Gustafsson'
p1055
I5
sS'abMainSite'
p1056
I6
sS'Poker'
p1057
I4
sS'ico'
p1058
I3
sS'kommuner'
p1059
I1
sS'for'
p1060
I29
sS'bottom'
p1061
I81
sS'Bbred'
p1062
I3
sS'SCA'
p1063
I2
sS'ddes'
p1064
I2
sS'fas'
p1065
I1
sS'flyktinggruppen'
p1066
I2
sS'themeBoxMegaHeaderLinks'
p1067
I9
sS'Fest'
p1068
I6
sS'Bakning'
p1069
I6
sS'Facebook'
p1070
I9
sS'Bieber'
p1071
I6
sS'Ha'
p1072
I3
sS'nyheterCssV'
p1073
I3
sS'Inspiration'
p1074
I15
sS'tusenlappablad'
p1075
I1
sS'elitserien'
p1076
I10
sS'bold'
p1077
I57
sS'boll'
p1078
I1
sS'abBookTripIcon'
p1079
I5
sS'tvnuchf'
p1080
I3
sS'anklagas'
p1081
I2
sS'tillbringar'
p1082
I2
sS'Fyndl'
p1083
I1
sS'BEGAGNAT'
p1084
I2
sS'abSesamInputSubmit'
p1085
I9
sS'pistol'
p1086
I2
sS'Gran'
p1087
I9
sS'hTc'
p1088
I1
sS'post'
p1089
I6
sS'Lahm'
p1090
I2
sS'hockeybladet'
p1091
I3
sS'First'
p1092
I3
sS'hockeykanada'
p1093
I1
sS'Prenumerera'
p1094
I4
sS'Blev'
p1095
I5
sS'obj'
p1096
I3
sS'innerElemClass'
p1097
I6
sS'sitecatalyst'
p1098
I3
sS'imorgon'
p1099
I3
sS'Brama'
p1100
I2
sS'Hierta'
p1101
I3
sS'noarchive'
p1102
I3
sS'o'
p1103
I5
sS'Pernilla'
p1104
I4
sS'Georgiens'
p1105
I2
sS'visa'
p1106
I3
sS'plus'
p1107
I81
sS'vaginan'
p1108
I2
sS'bluffade'
p1109
I1
sS'Perfekt'
p1110
I3
sS'uppror'
p1111
I1
sS'internationell'
p1112
I45
sS'olika'
p1113
I9
sS'Best'
p1114
I3
sS'romantiska'
p1115
I1
sS'miamipil'
p1116
I1
sS'ppa'
p1117
I1
sS'vinst'
p1118
I2
sS'Sajt'
p1119
I3
sS'sok'
p1120
I12
sS'float'
p1121
I90
sS'som'
p1122
I72
sS'Flygresor'
p1123
I3
sS'instadia'
p1124
I3
sS'Startsida'
p1125
I3
sS'Insider'
p1126
I18
sS'vattnet'
p1127
I6
sS'ipadNoteContainer'
p1128
I6
sS'Chippen'
p1129
I1
sS'drar'
p1130
I1
sS'oprovocerade'
p1131
I2
sS'Gaga'
p1132
I1
sS'dfaf'
p1133
I3
sS'ldsamma'
p1134
I1
sS'lsningestintan'
p1135
I1
sS'Englandsd'
p1136
I2
sS'abTestsegment'
p1137
I6
sS'ftiga'
p1138
I1
sS'Geers'
p1139
I2
sS'kt'
p1140
I4
sS'panorama'
p1141
I6
sS'Elvis'
p1142
I2
sS'Versace'
p1143
I2
sS'transform'
p1144
I3
sS'herman'
p1145
I2
sS'Enda'
p1146
I2
sS'width'
p1147
I1112
sS'brobyggarna'
p1148
I6
sS'contentVisible'
p1149
I12
sS'forre'
p1150
I6
sS'Hans'
p1151
I8
sS'tele'
p1152
I6
sS'Olsson'
p1153
I2
sS'adtlgc'
p1154
I18
sS'lugna'
p1155
I2
sS'Herman'
p1156
I2
sS'Immonen'
p1157
I2
sS'leftOrRight'
p1158
I9
sS'Potter'
p1159
I1
sS'head'
p1160
I6
sS'medium'
p1161
I118
sS'rarslen'
p1162
I2
sS'form'
p1163
I50
sS'offer'
p1164
I4
sS'bors'
p1165
I32
sS'italien'
p1166
I11
sS'nsbevakarna'
p1167
I2
sS'Kabinpersonalen'
p1168
I1
sS'Badmode'
p1169
I1
sS'Jean'
p1170
I2
sS'finns'
p1171
I4
sS'true'
p1172
I81
sS'Moneybrother'
p1173
I1
sS'sportsida'
p1174
I1
sS'kaktjej'
p1175
I1
sS'abBoxTheme'
p1176
I49
sS'buseypil'
p1177
I1
sS'drabbat'
p1178
I1
sS'reser'
p1179
I4
sS'getaway'
p1180
I1
sS'panelen'
p1181
I3
sS'Hemmasnickare'
p1182
I3
sS'Von'
p1183
I6
sS'positiv'
p1184
I2
sS'kylan'
p1185
I4
sS'Karlsson'
p1186
I2
sS'url'
p1187
I319
sS'Grattis'
p1188
I2
sS'clickOverlay'
p1189
I2
sS'Egoister'
p1190
I1
sS'resen'
p1191
I2
sS'ngslades'
p1192
I2
sS'Socialdemokraterna'
p1193
I2
sS'fansen'
p1194
I3
sS'latestTab'
p1195
I6
sS'Kolumnister'
p1196
I6
sS'appendChild'
p1197
I3
sS'Imperiet'
p1198
I2
sS'moore'
p1199
I2
sS'inclusive'
p1200
I17
sS'AVSL'
p1201
I2
sS'VET'
p1202
I1
sS'abImageBlock'
p1203
I487
sS'bilda'
p1204
I2
sS'Mariah'
p1205
I2
sS'ebd'
p1206
I1
sS'monsterfisk'
p1207
I2
sS'adtype'
p1208
I4
sS'nnu'
p1209
I3
sS'nns'
p1210
I2
sS'lunda'
p1211
I2
sS'nkta'
p1212
I1
sS'ni'
p1213
I1
sS'Begin'
p1214
I3
sS'Teaterbrasseriet'
p1215
I2
sS'handen'
p1216
I2
sS'gripits'
p1217
I1
sS'nn'
p1218
I4
sS'no'
p1219
I330
sS'daca'
p1220
I2
sS'abStreamerColor'
p1221
I60
sS'nd'
p1222
I5
sS'betala'
p1223
I3
sS'ng'
p1224
I12
sS'ny'
p1225
I17
sS'premi'
p1226
I1
sS'tio'
p1227
I1
sS'pekar'
p1228
I2
sS'protester'
p1229
I1
sS'ededca'
p1230
I2
sS'abToplistHeaderMostRead'
p1231
I9
sS'test'
p1232
I7
sS'nr'
p1233
I5
sS'ns'
p1234
I3
sS'nu'
p1235
I395
sS'snyggt'
p1236
I1
sS'loketPUFF'
p1237
I1
sS'node'
p1238
I19
sS'abToplistSubSection'
p1239
I9
sS'E'
p1240
I10
sS'minusgrader'
p1241
I2
sS'drunknade'
p1242
I2
sS'rlorar'
p1243
I3
sS'cbf'
p1244
I1
sS'brev'
p1245
I1
sS'eacute'
p1246
I1
sS'Resguide'
p1247
I3
sS'Hund'
p1248
I2
sS'registerClick'
p1249
I3
sS'profilerna'
p1250
I2
sS'frameborder'
p1251
I13
sS'ledareblogen'
p1252
I3
sS'Valuta'
p1253
I2
sS'interval'
p1254
I3
sS'modules'
p1255
I1
sS'hemma'
p1256
I13
sS'Flytta'
p1257
I3
sS'gervaispuff'
p1258
I1
sS'nks'
p1259
I2
sS'Uppkopplad'
p1260
I3
sS'abQuestionBox'
p1261
I3
sS'abElRot'
p1262
I15
sS'push'
p1263
I9
sS'imponerande'
p1264
I2
sS'WULFF'
p1265
I1
sS'nordicbet'
p1266
I15
sS'smek'
p1267
I2
sS'armar'
p1268
I2
sS'abBlogPostToolTips'
p1269
I3
sS'lls'
p1270
I2
sS'Varken'
p1271
I2
sS'oss'
p1272
I13
sS'porrstj'
p1273
I1
sS'genrepet'
p1274
I2
sS'focus'
p1275
I30
sS'osv'
p1276
I1
sS'webkit'
p1277
I3
sS'england'
p1278
I8
sS'rlaget'
p1279
I1
sS'SCREENING'
p1280
I1
sS'skin'
p1281
I3
sS'na'
p1282
I11
sS'lla'
p1283
I7
sS'retagens'
p1284
I2
sS'prisklasser'
p1285
I2
sS'lyxv'
p1286
I4
sS'abSymbBo'
p1287
I62
sS'vet'
p1288
I1
sS'ver'
p1289
I396
sS'rdare'
p1290
I2
sS'abAdPlacementBalk'
p1291
I15
sS'Momsregistreringsnr'
p1292
I3
sS'Sifo'
p1293
I2
sS'flash'
p1294
I2
sS'umg'
p1295
I1
sS'chatten'
p1296
I2
sS'Paris'
p1297
I2
sS'modeexpert'
p1298
I3
sS'politiker'
p1299
I1
sS'budgetguide'
p1300
I2
sS'Viktklubbs'
p1301
I2
sS'ven'
p1302
I2
sS'bfccb'
p1303
I2
sS'vem'
p1304
I6
sS'aspx'
p1305
I4
sS'ADTECH'
p1306
I51
sS'Yoko'
p1307
I2
sS'Ringhals'
p1308
I4
sS'me'
p1309
I4
sS'Lindqvists'
p1310
I2
sS'naringsliv'
p1311
I1
sS'Sonen'
p1312
I1
sS'debatt'
p1313
I6
sS'controls'
p1314
I9
sS'Zlatans'
p1315
I2
sS'alltomstockholm'
p1316
I53
sS'kmotorn'
p1317
I3
sS'Specialsidor'
p1318
I2
sS'mf'
p1319
I2
sS'Plus'
p1320
I34
sS'beteende'
p1321
I1
sS'egon'
p1322
I1
sS'naren'
p1323
I1
sS'word'
p1324
I30
sS'abIG'
p1325
I6
sS'Jersey'
p1326
I2
sS'extrapersonal'
p1327
I2
sS'Krog'
p1328
I2
sS'din'
p1329
I48
sS'abBoxBorder'
p1330
I35
sS'Just'
p1331
I5
sS'level'
p1332
I3
sS'metod'
p1333
I1
sS'bukis'
p1334
I2
sS'Debatt'
p1335
I4
sS'hawaii'
p1336
I1
sS'nedsatt'
p1337
I2
sS'sofistripp'
p1338
I1
sS'p'
p1339
I317
sS'ehandel'
p1340
I3
sS'olyckor'
p1341
I8
sS'sovrum'
p1342
I2
sS'hemelektronik'
p1343
I12
sS'lever'
p1344
I2
sS'div'
p1345
I7046
sS'hittade'
p1346
I7
sS'round'
p1347
I3
sS'MAPLE'
p1348
I2
sS'bd'
p1349
I7
sS'work'
p1350
I3
sS'htc'
p1351
I8
sS'be'
p1352
I15
sS'satt'
p1353
I2
sS'Res'
p1354
I4
sS'Stekheta'
p1355
I1
sS'voffsingar'
p1356
I3
sS'Busey'
p1357
I1
sS'patrull'
p1358
I1
sS'perfekt'
p1359
I3
sS'rymden'
p1360
I13
sS'Ren'
p1361
I2
sS'BBox'
p1362
I55
sS'storleken'
p1363
I1
sS'Niva'
p1364
I1
sS'Aftonbladet'
p1365
I114
sS'runt'
p1366
I1
sS'tacklingen'
p1367
I1
sS'Expressenpris'
p1368
I1
sS'Expressens'
p1369
I1
sS'headset'
p1370
I2
sS'Pengar'
p1371
I1
sS'derskan'
p1372
I1
sS'rdag'
p1373
I5
sS'abPadding'
p1374
I3
sS'VATICAN'
p1375
I1
sS'ordf'
p1376
I10
sS'Trus'
p1377
I2
sS'trov'
p1378
I1
sS'rdelarna'
p1379
I1
sS'monarkin'
p1380
I2
sS'template'
p1381
I379
sS'Hemligheten'
p1382
I1
sS'oiscan'
p1383
I3
sS'stream'
p1384
I1
sS'Elsas'
p1385
I2
sS'True'
p1386
I8
sS'Lopez'
p1387
I2
sS'resorna'
p1388
I3
sS'teaterdr'
p1389
I1
sS'tysta'
p1390
I1
sS'ning'
p1391
I3
sS'roddablad'
p1392
I2
sS'nge'
p1393
I2
sS'kapitalism'
p1394
I2
sS'Berra'
p1395
I1
sS'tvIconText'
p1396
I16
sS'Sevo'
p1397
I1
sS'kamp'
p1398
I3
sS'SVENNING'
p1399
I4
sS'Badade'
p1400
I2
sS'derstatistiker'
p1401
I1
sS'studenter'
p1402
I6
sS'enkla'
p1403
I3
sS'kohchangpuff'
p1404
I2
sS'Inf'
p1405
I1
sS'toolbar'
p1406
I30
sS'kommun'
p1407
I1
sS'ServiceFinder'
p1408
I3
sS'NDAG'
p1409
I2
sS'abMainContainer'
p1410
I12
sS'bieberpil'
p1411
I1
sS'Deal'
p1412
I2
sS'mnproblem'
p1413
I1
sS'medan'
p1414
I2
sS'bor'
p1415
I2
sS'rasa'
p1416
I2
sS'bot'
p1417
I3
sS'upploppbalk'
p1418
I1
sS'Percy'
p1419
I1
sS'Legacy'
p1420
I2
sS'pryl'
p1421
I37
sS'ngm'
p1422
I1
sS'ocks'
p1423
I1
sS'suredo'
p1424
I9
sS'yuiloader'
p1425
I6
sS'vinnare'
p1426
I1
sS'dreamhackPUFF'
p1427
I1
sS'massage'
p1428
I1
sS'samlingsboxen'
p1429
I1
sS'hopp'
p1430
I2
sS'sticky'
p1431
I6
sS'Borgstr'
p1432
I2
sS'DOM'
p1433
I2
sS'vlingen'
p1434
I1
sS'hade'
p1435
I7
sS'Relationer'
p1436
I3
sS'Fireside'
p1437
I1
sS'jas'
p1438
I2
sS'fbb'
p1439
I2
sS'fbf'
p1440
I3
sS'ipt'
p1441
I51
sS'abImageColumnTeaser'
p1442
I237
sS'mobil'
p1443
I57
sS'York'
p1444
I3
sS'jan'
p1445
I1
sS'solresor'
p1446
I17
sS'rdeskrig'
p1447
I1
sS'Genial'
p1448
I1
sS'filma'
p1449
I1
sS'pubId'
p1450
I3
sS'helvetica'
p1451
I6
sS'prop'
p1452
I36
sS'bulornas'
p1453
I2
sS'insider'
p1454
I12
sS'stylesheet'
p1455
I12
sS'Visa'
p1456
I9
sS'iphone'
p1457
I7
sS'https'
p1458
I23
sS'Bilden'
p1459
I1
sS'Schulman'
p1460
I7
sS'kassa'
p1461
I1
sS'annat'
p1462
I3
sS'partiprogram'
p1463
I5
sS'hockey'
p1464
I46
sS'Timr'
p1465
I3
sS'bildspelet'
p1466
I1
sS'Beh'
p1467
I3
sS'detaljer'
p1468
I1
sS'Tjocke'
p1469
I1
sS'COLOURBOX'
p1470
I2
sS'F'
p1471
I116
sS'getElementsByTagName'
p1472
I3
sS'abExtension'
p1473
I3
sS'Advokat'
p1474
I2
sS'rlek'
p1475
I4
sS'ra'
p1476
I31
sS'teaser'
p1477
I3
sS'favorithus'
p1478
I4
sS'Flytthj'
p1479
I3
sS'nniskors'
p1480
I1
sS'lindqvist'
p1481
I2
sS'Bes'
p1482
I3
sS'varierande'
p1483
I1
sS'Bet'
p1484
I3
sS'Festade'
p1485
I1
sS'logos'
p1486
I3
sS'Charter'
p1487
I6
sS'paulPUFF'
p1488
I2
sS'Svante'
p1489
I1
sS'stoppad'
p1490
I2
sS'analys'
p1491
I5
sS'MMS'
p1492
I12
sS'cat'
p1493
I3
sS'oanst'
p1494
I1
sS'eVar'
p1495
I12
sS'abIndent'
p1496
I12
sS'can'
p1497
I3
sS'iframe'
p1498
I38
sS'barnsmamman'
p1499
I1
sS'cab'
p1500
I2
sS'Pris'
p1501
I2
sS'ilska'
p1502
I1
sS'Erotiska'
p1503
I2
sS'biter'
p1504
I2
sS'psykade'
p1505
I1
sS'cad'
p1506
I2
sS'tvavanner'
p1507
I1
sS'heart'
p1508
I2
sS'peterkadhammar'
p1509
I5
sS'rhandlingskort'
p1510
I1
sS'Kanon'
p1511
I2
sS'Eurolotto'
p1512
I4
sS'Min'
p1513
I4
sS'Headline'
p1514
I2
sS'december'
p1515
I2
sS'spr'
p1516
I2
sS'sondag'
p1517
I1
sS'agent'
p1518
I1
sS'ngledaren'
p1519
I5
sS'journalisters'
p1520
I6
sS'svall'
p1521
I2
sS'ngad'
p1522
I2
sS'annorlunda'
p1523
I2
sS'hemliga'
p1524
I2
sS'abToolbarName'
p1525
I3
sS'swedish'
p1526
I3
sS'svenskar'
p1527
I5
sS'drunknad'
p1528
I2
sS'Cson'
p1529
I4
sS'charset'
p1530
I3
sS'jattearga'
p1531
I1
sS'tbody'
p1532
I6
sS'Peta'
p1533
I1
sS'bryggeri'
p1534
I1
sS'write'
p1535
I63
sS'ABse'
p1536
I244
sS'simning'
p1537
I8
sS'xhtml'
p1538
I9
sS'nya'
p1539
I24
sS'nyf'
p1540
I1
sS'Why'
p1541
I2
sS'Tipsa'
p1542
I18
sS'getDate'
p1543
I3
sS'map'
p1544
I1
sS'aod'
p1545
I6
sS'abTeaserMini'
p1546
I92
sS'mat'
p1547
I4
sS'sno'
p1548
I1
sS'riksdagen'
p1549
I4
sS'konflikter'
p1550
I1
sS'raiders'
p1551
I1
sS'missar'
p1552
I2
sS'Asklund'
p1553
I1
sS'ambulans'
p1554
I1
sS'succ'
p1555
I4
sS'ttearga'
p1556
I1
sS'articleId'
p1557
I10
sS'prepuff'
p1558
I1
sS'Martin'
p1559
I7
sS'date'
p1560
I3
sS'berattelse'
p1561
I1
sS'vulkan'
p1562
I1
sS'data'
p1563
I3
sS'compatibility'
p1564
I3
sS'man'
p1565
I3
sS'asien'
p1566
I11
sS'sy'
p1567
I2
sS'LEFTNAV'
p1568
I6
sS'Twitterv'
p1569
I1
sS'Pasta'
p1570
I1
sS'ss'
p1571
I4
sS'ndras'
p1572
I1
sS'parny'
p1573
I1
sS'sp'
p1574
I7
sS'favorit'
p1575
I2
sS'sv'
p1576
I7
sS'dammsugare'
p1577
I2
sS'st'
p1578
I60
sS'q'
p1579
I18
sS'sj'
p1580
I10
sS'Radio'
p1581
I2
sS'sn'
p1582
I5
sS'sm'
p1583
I7
sS'sl'
p1584
I10
sS'sc'
p1585
I3
sS'sb'
p1586
I3
sS'sa'
p1587
I10
sS'skisser'
p1588
I3
sS'sg'
p1589
I2
sS'signerad'
p1590
I8
sS'se'
p1591
I3280
sS'Scocco'
p1592
I1
sS'rowP'
p1593
I2
sS'Sektion'
p1594
I3
sS'rbundets'
p1595
I2
sS'lsa'
p1596
I3
sS'Lendo'
p1597
I3
sS'utanf'
p1598
I2
sS'Degigt'
p1599
I3
sS'nojesbladet'
p1600
I172
sS'kyrkoherde'
p1601
I2
sS'blocket'
p1602
I16
sS'Jan'
p1603
I8
sS'nskat'
p1604
I1
sS'nbsp'
p1605
I302
sS'vintern'
p1606
I2
sS'Wollins'
p1607
I1
sS'darfor'
p1608
I6
sS'Jag'
p1609
I38
sS'tta'
p1610
I6
sS'Gudfadern'
p1611
I1
sS'Tillvaxtposition'
p1612
I3
sS'Gjorde'
p1613
I3
sS'leftNavigationGroupMenu'
p1614
I3
sS'auml'
p1615
I83
sS'trekronor'
p1616
I20
sS'farmen'
p1617
I3
sS'videoLiveEndDate'
p1618
I1
sS'colP'
p1619
I2
sS'pollenpressar'
p1620
I1
sS'platform'
p1621
I3
sS'window'
p1622
I522
sS'Kap'
p1623
I2
sS'Moving'
p1624
I1
sS'Mellin'
p1625
I3
sS'rklarad'
p1626
I1
sS'listing'
p1627
I2
sS'abLeftnav'
p1628
I6
sS'main'
p1629
I1
sS'passar'
p1630
I6
sS'RI'
p1631
I3
sS'xitiScript'
p1632
I15
sS'Krockade'
p1633
I1
sS'istock'
p1634
I1
sS'christopherPUFFw'
p1635
I1
sS'halv'
p1636
I4
sS'Miami'
p1637
I1
sS'matcher'
p1638
I1
sS'nog'
p1639
I2
sS'bbed'
p1640
I2
sS'sorter'
p1641
I2
sS'mjer'
p1642
I1
sS'matchen'
p1643
I2
sS'Roma'
p1644
I2
sS'jorden'
p1645
I8
sS'videoUrl'
p1646
I1
sS'rakt'
p1647
I6
sS'protesterar'
p1648
I1
sS'twilight'
p1649
I2
sS'Supermodellerna'
p1650
I1
sS'rvningen'
p1651
I1
sS'hotar'
p1652
I2
sS'kasta'
p1653
I2
sS'Drygt'
p1654
I1
sS'Loket'
p1655
I2
sS'name'
p1656
I70
sS'kra'
p1657
I2
sS'cellspacing'
p1658
I3
sS'directories'
p1659
I24
sS'Programledarna'
p1660
I1
sS'KAN'
p1661
I1
sS'Tasteline'
p1662
I3
sS'leda'
p1663
I2
sS'leftNavigationIsSelected'
p1664
I6
sS'rowC'
p1665
I1
sS'mostWatchedTab'
p1666
I6
sS'wellness'
p1667
I46
sS'terv'
p1668
I3
sS'Milj'
p1669
I1
sS'rk'
p1670
I5
sS'em'
p1671
I24
sS'el'
p1672
I21
sS'Efva'
p1673
I2
sS'en'
p1674
I88
sS'Deeds'
p1675
I1
sS'Lotta'
p1676
I2
sS'Baer'
p1677
I2
sS'miljonerna'
p1678
I3
sS'ee'
p1679
I15
sS'ed'
p1680
I10
sS'ef'
p1681
I12
sS'ea'
p1682
I17
sS'poker'
p1683
I7
sS'ec'
p1684
I8
sS'eb'
p1685
I11
sS'Live'
p1686
I3
sS'afterice'
p1687
I3
sS'Apples'
p1688
I2
sS'daefc'
p1689
I3
sS'fortsatter'
p1690
I3
sS'Globe'
p1691
I2
sS'krav'
p1692
I1
sS'ENSAM'
p1693
I2
sS'aftonbladetnya'
p1694
I3
sS'malmomord'
p1695
I2
sS'vmeny'
p1696
I3
sS'spelens'
p1697
I2
sS'album'
p1698
I2
sS'riktigt'
p1699
I2
sS'container'
p1700
I6
sS'Politiker'
p1701
I1
sS'blu'
p1702
I9
sS'sjuka'
p1703
I1
sS'sunda'
p1704
I2
sS'Dom'
p1705
I45
sS'songen'
p1706
I3
sS'nner'
p1707
I11
sS'nnen'
p1708
I2
sS'bli'
p1709
I7
sS'internet'
p1710
I3
sS'videoStreamingAdaptiveBitratePackage'
p1711
I1
sS'rskr'
p1712
I2
sS'LEAFS'
p1713
I2
sS'bla'
p1714
I2
sS'sidans'
p1715
I3
sS'partnertv'
p1716
I6
sS'pulka'
p1717
I2
sS'linnheedwww'
p1718
I4
sS'END'
p1719
I9
sS'monster'
p1720
I2
sS'G'
p1721
I25
sS'rld'
p1722
I5
sS'Naima'
p1723
I1
sS'minhembio'
p1724
I1
sS'Chefredakt'
p1725
I3
sS'budgetversion'
p1726
I2
sS'ork'
p1727
I2
sS'ldre'
p1728
I2
sS'forenadearabemiraten'
p1729
I8
sS'mest'
p1730
I7
sS'pris'
p1731
I1
sS'avslojar'
p1732
I6
sS'TORSDAG'
p1733
I1
sS'tvnuk'
p1734
I87
sS'Batters'
p1735
I1
sS'language'
p1736
I15
sS'hantverkare'
p1737
I9
sS'Bremberg'
p1738
I2
sS'snapshots'
p1739
I1
sS'extraData'
p1740
I12
sS'dbs'
p1741
I1
sS'nofollow'
p1742
I51
sS'yui'
p1743
I39
sS'massiva'
p1744
I1
sS'fyndl'
p1745
I2
sS'fc'
p1746
I8
sS'RSTA'
p1747
I2
sS'Erik'
p1748
I1
sS'Pilram'
p1749
I18
sS'tvnus'
p1750
I9
sS'lamnar'
p1751
I1
sS'tvnuv'
p1752
I9
sS'Amex'
p1753
I1
sS'egentligen'
p1754
I2
sS'first'
p1755
I12
sS'Rusta'
p1756
I1
sS'kommunist'
p1757
I2
sS'Helin'
p1758
I3
sS'MA'
p1759
I2
sS'Kokainberoende'
p1760
I1
sS'accesskey'
p1761
I3
sS'funkar'
p1762
I1
sS'potter'
p1763
I4
sS'ldreomsorgen'
p1764
I1
sS'kigt'
p1765
I4
sS'Till'
p1766
I6
sS'professionalcare'
p1767
I4
sS'gad'
p1768
I1
sS'Black'
p1769
I2
sS'fast'
p1770
I2
sS'vote'
p1771
I3
sS'afec'
p1772
I1
sS'Hollywood'
p1773
I8
sS'fight'
p1774
I1
sS'open'
p1775
I27
sS'fj'
p1776
I3
sS'xt'
p1777
I27
sS'size'
p1778
I179
sS'premiumInfo'
p1779
I9
sS'racerbanan'
p1780
I2
sS'little'
p1781
I1
sS'elitens'
p1782
I8
sS'rklund'
p1783
I2
sS'fynda'
p1784
I1
sS'mediekritik'
p1785
I3
sS'iad'
p1786
I67
sS'Aten'
p1787
I1
sS'enhetlig'
p1788
I1
sS'ibrahimovic'
p1789
I4
sS'Thaib'
p1790
I2
sS'Cspo'
p1791
I2
sS'Succ'
p1792
I5
sS'Carema'
p1793
I4
sS'SEC'
p1794
I2
sS'SEB'
p1795
I1
sS'Date'
p1796
I54
sS'lsucc'
p1797
I1
sS'tragik'
p1798
I2
sS'williams'
p1799
I2
sS'vilka'
p1800
I1
sS'Johansson'
p1801
I4
sS'abTvArticlePlayerPlayButton'
p1802
I1
sS'Pranked'
p1803
I1
sS'motiv'
p1804
I1
sS'bfcf'
p1805
I4
sS'abAdPlacementMinimediaettan'
p1806
I3
sS'mmarna'
p1807
I1
sS'portarna'
p1808
I1
sS'padding'
p1809
I446
sS'niva'
p1810
I3
sS'newberry'
p1811
I1
sS'roligaste'
p1812
I1
sS'disarna'
p1813
I1
sS'hur'
p1814
I3
sS'hus'
p1815
I3
sS'Sepp'
p1816
I1
sS'abSymbPlus'
p1817
I93
sS'copy'
p1818
I3
sS'mostviewed'
p1819
I4
sS'ndrade'
p1820
I1
sS'png'
p1821
I44
sS'padre'
p1822
I1
sS'vigillarolika'
p1823
I6
sS'dygn'
p1824
I1
sS'pluspuff'
p1825
I2
sS'Bingolotto'
p1826
I3
sS'require'
p1827
I3
sS'fiender'
p1828
I2
sS'lpare'
p1829
I1
sS'Biggest'
p1830
I1
sS'Analytics'
p1831
I3
sS'r'
p1832
I543
sS'lugn'
p1833
I2
sS'operativsystem'
p1834
I1
sS'modeller'
p1835
I5
sS'gamla'
p1836
I2
sS'nstg'
p1837
I3
sS'UFO'
p1838
I2
sS'and'
p1839
I6
sS'DO'
p1840
I6
sS'mazarinbakning'
p1841
I2
sS'DM'
p1842
I3
sS'tsligt'
p1843
I10
sS'sam'
p1844
I12
sS'anm'
p1845
I2
sS'lejonsida'
p1846
I1
sS'trixa'
p1847
I1
sS'rke'
p1848
I1
sS'Pappa'
p1849
I1
sS'rens'
p1850
I2
sS'Korseld'
p1851
I3
sS'akuten'
p1852
I1
sS'DNA'
p1853
I1
sS'DU'
p1854
I5
sS'skandalen'
p1855
I1
sS'svenskt'
p1856
I1
sS'fotbollefterdoden'
p1857
I6
sS'dacebff'
p1858
I2
sS'ultimata'
p1859
I1
sS'passade'
p1860
I1
sS'De'
p1861
I25
sS'Har'
p1862
I10
sS'tsas'
p1863
I1
sS'massa'
p1864
I2
sS'ktet'
p1865
I2
sS'Invest'
p1866
I2
sS'deltagarna'
p1867
I2
sS'bostadsklipp'
p1868
I2
sS'ngra'
p1869
I2
sS'Du'
p1870
I3
sS'Dr'
p1871
I8
sS'kust'
p1872
I3
sS'ngre'
p1873
I1
sS'knarkligornas'
p1874
I2
sS'INTE'
p1875
I2
sS'servicefinder'
p1876
I31
sS'begin'
p1877
I3
sS'diskussionen'
p1878
I3
sS'normal'
p1879
I321
sS'isoleras'
p1880
I2
sS'sterna'
p1881
I2
sS'fcb'
p1882
I2
sS'mordet'
p1883
I2
sS'printed'
p1884
I3
sS'Dagens'
p1885
I9
sS'fdda'
p1886
I3
sS'getLogger'
p1887
I2
sS'Magnusson'
p1888
I1
sS'numret'
p1889
I2
sS'Drog'
p1890
I2
sS'pages'
p1891
I3
sS'icon'
p1892
I6
sS'glamour'
p1893
I2
sS'CIS'
p1894
I1
sS'medhj'
p1895
I1
sS'bedefa'
p1896
I1
sS'okej'
p1897
I1
sS'tusenlappen'
p1898
I1
sS'slideshow'
p1899
I1
sS'spelare'
p1900
I3
sS'Makal'
p1901
I3
sS'abToolbarNotLoggedIn'
p1902
I6
sS'Stoppa'
p1903
I1
sS'salt'
p1904
I1
sS'Swedin'
p1905
I1
sS'shop'
p1906
I19
sS'Web'
p1907
I3
sS'walking'
p1908
I2
sS'middagar'
p1909
I6
sS'frisyr'
p1910
I1
sS'show'
p1911
I7
sS'opererades'
p1912
I1
sS'Knepet'
p1913
I2
sS'atom'
p1914
I6
sS'BHakon'
p1915
I1
sS'liemannnen'
p1916
I2
sS'meter'
p1917
I5
sS'Pulserar'
p1918
I1
sS'Dreamhack'
p1919
I1
sS'Ska'
p1920
I1
sS'abArticleComments'
p1921
I229
sS'Rolf'
p1922
I1
sS'Test'
p1923
I3
sS'tror'
p1924
I2
sS'abNavTimestamp'
p1925
I3
sS'sportbladet'
p1926
I275
sS'Bojkottar'
p1927
I1
sS'utpekas'
p1928
I2
sS'gusen'
p1929
I2
sS'xml'
p1930
I33
sS'We'
p1931
I3
sS'trots'
p1932
I1
sS'villapriserna'
p1933
I1
sS'title'
p1934
I633
sS'fastnade'
p1935
I3
sS'riksdagsledam'
p1936
I1
sS'slutgiltigt'
p1937
I1
sS'stoppades'
p1938
I1
sS'Hulk'
p1939
I2
sS'historien'
p1940
I2
sS'only'
p1941
I1
sS'utpekade'
p1942
I2
sS'black'
p1943
I8
sS'RIK'
p1944
I2
sS'nekat'
p1945
I1
sS'Plutt'
p1946
I3
sS'bjornsbytare'
p1947
I3
sS'kollegorna'
p1948
I2
sS'provar'
p1949
I1
sS'ip'
p1950
I1
sS'ettan'
p1951
I185
sS'Juholt'
p1952
I2
sS'exempel'
p1953
I2
sS'raset'
p1954
I4
sS'Lyssna'
p1955
I3
sS'get'
p1956
I15
sS'Frisyrer'
p1957
I1
sS'H'
p1958
I99
sS'abFrameworkContainer'
p1959
I6
sS'rrumpor'
p1960
I2
sS'ssl'
p1961
I3
sS'STTV'
p1962
I1
sS'Moderat'
p1963
I2
sS'handlingar'
p1964
I4
sS'fde'
p1965
I3
sS'alternativmedicin'
p1966
I1
sS'arvsmonarkin'
p1967
I2
sS'njuta'
p1968
I3
sS'gen'
p1969
I8
sS'terrorbombarens'
p1970
I1
sS'nalin'
p1971
I1
sS'Right'
p1972
I30
sS'resource'
p1973
I4
sS'mobbare'
p1974
I1
sS'angivaren'
p1975
I2
sS'bbigare'
p1976
I1
sS'ute'
p1977
I2
sS'rullar'
p1978
I2
sS'email'
p1979
I3
sS'dea'
p1980
I1
sS'llop'
p1981
I4
sS'Terrorism'
p1982
I1
sS'FLERA'
p1983
I3
sS'ckey'
p1984
I3
sS'naken'
p1985
I2
sS'abFloatclearer'
p1986
I495
sS'amanda'
p1987
I1
sS'akuta'
p1988
I2
sS'quizbalk'
p1989
I1
sS'rvirrande'
p1990
I1
sS'rdbolaget'
p1991
I2
sS'EMA'
p1992
I4
sS'Mardirossian'
p1993
I1
sS'Polisen'
p1994
I2
sS'Fuerteventura'
p1995
I6
sS'ipad'
p1996
I39
sS'uppdraget'
p1997
I2
sS'lsostatus'
p1998
I1
sS'abCheckSmallScreenClient'
p1999
I3
sS'rme'
p2000
I3
sS'sport'
p2001
I52
sS'helsida'
p2002
I18
sS'Navigering'
p2003
I93
sS'rade'
p2004
I2
sS'vertical'
p2005
I15
sS'sportamore'
p2006
I14
sS'ul'
p2007
I66
sS'AllaStudier'
p2008
I6
sS'label'
p2009
I75
sS'drabbad'
p2010
I1
sS'Jonas'
p2011
I3
sS'depressioner'
p2012
I1
sS'verskridande'
p2013
I1
sS'ju'
p2014
I1
sS'landets'
p2015
I2
sS'Breiviks'
p2016
I2
sS'syrianska'
p2017
I8
sS'verklassdamer'
p2018
I2
sS'notice'
p2019
I1
sS'vrat'
p2020
I2
sS'signalen'
p2021
I1
sS'parent'
p2022
I3
sS'rkmedicin'
p2023
I2
sS'abQuestionLabel'
p2024
I3
sS'MER'
p2025
I1
sS'fynd'
p2026
I2
sS'caaa'
p2027
I1
sS'mellan'
p2028
I4
sS'adAreas'
p2029
I3
sS'jobb'
p2030
I56
sS'Arne'
p2031
I3
sS'larmade'
p2032
I1
sS'jd'
p2033
I2
sS'comeback'
p2034
I2
sS'js'
p2035
I44
sS'lopez'
p2036
I2
sS'abToolbarMenuContainer'
p2037
I3
sS'experterna'
p2038
I1
sS'spara'
p2039
I3
sS'MPEG'
p2040
I1
sS'abRosta'
p2041
I6
sS'clooneypil'
p2042
I1
sS'ndarv'
p2043
I2
sS'S'
p2044
I142
sS'Monti'
p2045
I6
sS's'
p2046
I317
sS'TabView'
p2047
I12
sS'gjorde'
p2048
I13
sS'Cnje'
p2049
I6
sS'xtdi'
p2050
I3
sS'csid'
p2051
I3
sS'avsnitt'
p2052
I4
sS'harrypotter'
p2053
I3
sS'babbca'
p2054
I3
sS'kolportage'
p2055
I3
sS'regler'
p2056
I1
sS'color'
p2057
I647
sS'pos'
p2058
I9
sS'pokerutmaningen'
p2059
I3
sS'backgroundPosition'
p2060
I30
sS'segQS'
p2061
I6
sS'tagName'
p2062
I15
sS'article'
p2063
I1454
sS'egoister'
p2064
I1
sS'affarside'
p2065
I3
sS'Unikt'
p2066
I2
sS'torsdag'
p2067
I2
sS'ryggen'
p2068
I1
sS'grona'
p2069
I2
sS'dstr'
p2070
I1
sS'Reportern'
p2071
I2
sS'ing'
p2072
I2
sS'isMegaPuff'
p2073
I9
sS'ja'
p2074
I1
sS'knappt'
p2075
I2
sS'Babel'
p2076
I1
sS'varldendirekt'
p2077
I6
sS'lder'
p2078
I1
sS'vintersport'
p2079
I8
sS'kultur'
p2080
I26
sS'krona'
p2081
I3
sS'areaId'
p2082
I52
sS'enkelt'
p2083
I2
sS'Sverige'
p2084
I18
sS'onmouseout'
p2085
I15
sS'abtoplistradio'
p2086
I6
sS'rjar'
p2087
I2
sS'dbdec'
p2088
I2
sS'slets'
p2089
I2
sS'kelskap'
p2090
I2
sS'mans'
p2091
I1
sS'Pryl'
p2092
I6
sS'Wahlgren'
p2093
I4
sS'Action'
p2094
I6
sS'lade'
p2095
I1
sS'efter'
p2096
I22
sS'weeks'
p2097
I1
sS'tvIcon'
p2098
I52
sS'skriver'
p2099
I5
sS'mpe'
p2100
I1
sS'Bayern'
p2101
I2
sS'krans'
p2102
I2
sS'otippad'
p2103
I2
sS'bilderna'
p2104
I5
sS'these'
p2105
I3
sS'direktrapporterade'
p2106
I2
sS'colorscheme'
p2107
I6
sS'WRESTLING'
p2108
I2
sS'kostnadsfritt'
p2109
I2
sS'Lyxf'
p2110
I3
sS'unibet'
p2111
I12
sS'gunillajack'
p2112
I2
sS'profilen'
p2113
I4
sS'editorial'
p2114
I2
sS'nyhetsportal'
p2115
I3
sS'report'
p2116
I1
sS'uppkopplad'
p2117
I3
sS'ansikte'
p2118
I1
sS'margin'
p2119
I132
sS'playerId'
p2120
I1
sS'AfterIce'
p2121
I1
sS'sparkar'
p2122
I1
sS'Sofi'
p2123
I1
sS'Blue'
p2124
I1
sS'rattigheter'
p2125
I1
sS'rdsm'
p2126
I2
sS'pippa'
p2127
I2
sS'ERBJUDANDE'
p2128
I5
sS'vulkaner'
p2129
I1
sS'updateTaxParamsIfPremium'
p2130
I6
sS'debattlivebotten'
p2131
I1
sS'Content'
p2132
I3
sS'Omniture'
p2133
I3
sS'abLinkBlock'
p2134
I78
sS'AIK'
p2135
I1
sS'Lejon'
p2136
I2
sS'uppmanade'
p2137
I1
sS'kenya'
p2138
I8
sS'Susanne'
p2139
I1
sS'rnkapacitet'
p2140
I1
sS'Rios'
p2141
I4
sS'par'
p2142
I4
sS'orsakade'
p2143
I2
sS'author'
p2144
I3
sS'media'
p2145
I3
sS'Socialdemokraternas'
p2146
I1
sS'archive'
p2147
I2
sS'html'
p2148
I27
sS'daf'
p2149
I1
sS'lite'
p2150
I2
sS'rnekar'
p2151
I2
sS'arga'
p2152
I1
sS'MSIE'
p2153
I3
sS'bokaff'
p2154
I1
sS'status'
p2155
I24
sS'apoteksf'
p2156
I1
sS'isPremium'
p2157
I6
sS'rnans'
p2158
I1
sS'villabrand'
p2159
I2
sS'Ett'
p2160
I8
sS'Phuket'
p2161
I1
sS'I'
p2162
I24
sS'acda'
p2163
I1
sS'Jubileumsprogrammet'
p2164
I1
sS'Barcelona'
p2165
I2
sS'Stasi'
p2166
I6
sS'II'
p2167
I2
sS'abAdsHeliosAdGroupId'
p2168
I51
sS'sofismode'
p2169
I102
sS'favoriter'
p2170
I1
sS'lagenhet'
p2171
I2
sS'tyskland'
p2172
I8
sS'IE'
p2173
I3
sS'ID'
p2174
I30
sS'tipsa'
p2175
I6
sS'Tjeckien'
p2176
I4
sS'ndra'
p2177
I1
sS'abDivider'
p2178
I170
sS'ndag'
p2179
I6
sS'Sportbladet'
p2180
I39
sS'undefined'
p2181
I15
sS'Benzo'
p2182
I6
sS'Motorv'
p2183
I3
sS'Unik'
p2184
I1
sS'It'
p2185
I6
sS'rdes'
p2186
I1
sS'Startsidan'
p2187
I12
sS'ringer'
p2188
I1
sS'nyhetsflash'
p2189
I6
sS'rden'
p2190
I9
sS'veckans'
p2191
I14
sS'Rent'
p2192
I3
sS'pades'
p2193
I4
sS'In'
p2194
I2
sS'nygangtvpuff'
p2195
I2
sS'Dexpedition'
p2196
I2
sS'cca'
p2197
I2
sS'frontpage'
p2198
I21
sS'ccc'
p2199
I69
sS'nchen'
p2200
I2
sS'Jimmie'
p2201
I2
sS'Puma'
p2202
I2
sS'kantas'
p2203
I1
sS'Agenda'
p2204
I2
sS'ottawa'
p2205
I1
sS'benzo'
p2206
I6
sS'lyxgodset'
p2207
I1
sS'when'
p2208
I6
sS'BOR'
p2209
I2
sS'tydlig'
p2210
I1
sS'Missa'
p2211
I2
sS'kritiska'
p2212
I1
sS'raderat'
p2213
I1
sS'oscillerar'
p2214
I1
sS'Svagaste'
p2215
I1
sS'Daniel'
p2216
I1
sS'abWeightNormal'
p2217
I18
sS'kilo'
p2218
I11
sS'n'
p2219
I133
sS'likheter'
p2220
I2
sS'resa'
p2221
I84
sS'Might'
p2222
I3
sS'hejda'
p2223
I2
sS'Kolla'
p2224
I3
sS'upproret'
p2225
I1
sS'seb'
p2226
I6
sS'ljuga'
p2227
I1
sS'ngade'
p2228
I2
sS'lordag'
p2229
I3
sS'starka'
p2230
I4
sS'mmar'
p2231
I3
sS'param'
p2232
I12
sS'omniture'
p2233
I6
sS'Jobb'
p2234
I3
sS'rost'
p2235
I6
sS'Flygv'
p2236
I2
sS'xbox'
p2237
I2
sS'ca'
p2238
I4
sS'Junior'
p2239
I1
sS'Auml'
p2240
I4
sS'moz'
p2241
I12
sS'SVERIGE'
p2242
I5
sS'svikarna'
p2243
I2
sS'Phillip'
p2244
I1
sS'triumph'
p2245
I4
sS'haft'
p2246
I5
sS'chattade'
p2247
I1
sS'klippet'
p2248
I9
sS'mot'
p2249
I26
sS'Minns'
p2250
I1
sS'Lundgren'
p2251
I2
sS'grid'
p2252
I2
sS'klimat'
p2253
I2
sS'Vallejo'
p2254
I1
sS'amp'
p2255
I602
sS'SVT'
p2256
I12
sS'eada'
p2257
I16
sS'TODO'
p2258
I3
sS'Tracy'
p2259
I1
sS'Upp'
p2260
I3
sS'Shop'
p2261
I27
sS'nyhetsjournalist'
p2262
I1
sS'abArtikelytaContainer'
p2263
I3
sS'intel'
p2264
I7
sS'Show'
p2265
I11
sS'studenten'
p2266
I1
sS'Hennes'
p2267
I1
sS'stressmage'
p2268
I1
sS'Blatter'
p2269
I2
sS'playerSoundLevel'
p2270
I1
sS'server'
p2271
I6
sS'abNavSelectedSection'
p2272
I6
sS'cdon'
p2273
I51
sS'Enligt'
p2274
I2
sS't'
p2275
I33
sS'Brott'
p2276
I3
sS'agenter'
p2277
I2
sS'Laptop'
p2278
I2
sS'abToplistTTLink'
p2279
I3
sS'jobbar'
p2280
I3
sS'sveper'
p2281
I2
sS'Nej'
p2282
I3
sS'garen'
p2283
I2
sS'skyddar'
p2284
I2
sS'uppercase'
p2285
I3
sS'skatteflykten'
p2286
I1
sS'tajt'
p2287
I1
sS'Engqvist'
p2288
I3
sS'huvudrollen'
p2289
I2
sS'Ellen'
p2290
I2
sS'specified'
p2291
I3
sS'nyheterna'
p2292
I3
sS'koll'
p2293
I4
sS'elaka'
p2294
I2
sS'Wesc'
p2295
I2
sS'Med'
p2296
I2
sS'strippar'
p2297
I1
sS'lottl'
p2298
I1
sS'inspelningshetsen'
p2299
I2
sS'Men'
p2300
I8
sS'orgId'
p2301
I3
sS'Bulls'
p2302
I1
sS'verfallen'
p2303
I1
sS'ddh'
p2304
I1
sS'Smart'
p2305
I2
sS'Mer'
p2306
I12
sS'ddc'
p2307
I2
sS'dda'
p2308
I6
sS'beundrarbrev'
p2309
I2
sS'dde'
p2310
I4
sS'agera'
p2311
I2
sS'storhetstid'
p2312
I2
sS'arrow'
p2313
I3
sS'business'
p2314
I14
sS'wireframecss'
p2315
I3
sS'lyckades'
p2316
I3
sS'ngrar'
p2317
I2
sS'klassade'
p2318
I1
sS'Sju'
p2319
I2
sS'debug'
p2320
I1
sS'Vietnam'
p2321
I1
sS'Rock'
p2322
I6
sS'tyska'
p2323
I2
sS'MISS'
p2324
I2
sS'abTvArticlePlayerClickOverlay'
p2325
I1
sS'kontring'
p2326
I2
sS'riksdagsklubbarna'
p2327
I4
sS'on'
p2328
I36
sS'om'
p2329
I74
sS'HTC'
p2330
I2
sS'oj'
p2331
I6
sS'Lion'
p2332
I1
sS'Helins'
p2333
I3
sS'rdskarta'
p2334
I3
sS'of'
p2335
I8
sS'xtn'
p2336
I3
sS'Florakrysset'
p2337
I3
sS'tajtar'
p2338
I2
sS'latestUrlBase'
p2339
I6
sS'lda'
p2340
I2
sS'Barnboken'
p2341
I1
sS'cellpadding'
p2342
I3
sS'elementRotator'
p2343
I3
sS'talade'
p2344
I2
sS'abSearchStreamerShadow'
p2345
I6
sS'road'
p2346
I1
sS'favoritv'
p2347
I1
sS'abTeaserColumnistHeader'
p2348
I6
sS'Sexk'
p2349
I1
sS'Ads'
p2350
I3
sS'gerillan'
p2351
I1
sS'Magnus'
p2352
I1
sS'initTopRead'
p2353
I9
sS'image'
p2354
I525
sS'gare'
p2355
I4
sS'carey'
p2356
I2
sS'Add'
p2357
I3
sS'nybbevadsmo'
p2358
I1
sS'klassiker'
p2359
I1
sS'angel'
p2360
I1
sS'domstol'
p2361
I1
sS'inredning'
p2362
I7
sS'Stora'
p2363
I3
sS'Persson'
p2364
I2
sS'Winter'
p2365
I2
sS'Nu'
p2366
I20
sS'ringar'
p2367
I1
sS'wildfire'
p2368
I8
sS'loc'
p2369
I51
sS'tvArticleTextDivId'
p2370
I1
sS'ikonx'
p2371
I15
sS'area'
p2372
I4
sS'ringenpuff'
p2373
I2
sS'frakt'
p2374
I2
sS'provokativ'
p2375
I4
sS'Mars'
p2376
I1
sS'turbo'
p2377
I2
sS'sofissnapshots'
p2378
I1
sS'NY'
p2379
I28
sS'rsid'
p2380
I1
sS'avdelning'
p2381
I3
sS'italic'
p2382
I3
sS'politikerkollen'
p2383
I20
sS'hel'
p2384
I2
sS'scri'
p2385
I51
sS'NS'
p2386
I3
sS'mngl'
p2387
I25
sS'NU'
p2388
I2
sS'nning'
p2389
I4
sS'storshejk'
p2390
I1
sS'Oj'
p2391
I7
sS'tsucc'
p2392
I2
sS'Om'
p2393
I11
sS'abAdPlacementHelsida'
p2394
I9
sS'Pattinson'
p2395
I1
sS'ldreboenden'
p2396
I2
sS'rja'
p2397
I1
sS'Harry'
p2398
I3
sS'gonsin'
p2399
I6
sS'flygv'
p2400
I4
sS'mde'
p2401
I2
sS'with'
p2402
I6
sS'egen'
p2403
I13
sS'viewport'
p2404
I3
sS'IPAD'
p2405
I1
sS'gga'
p2406
I1
sS'ltar'
p2407
I13
sS'premierleague'
p2408
I4
sS'ekonomi'
p2409
I12
sS'abLeftnavContainer'
p2410
I6
sS'romantik'
p2411
I1
sS'utspel'
p2412
I2
sS'minns'
p2413
I3
sS'exemplar'
p2414
I1
sS'moderat'
p2415
I2
sS'site'
p2416
I6
sS'mnades'
p2417
I2
sS'Avf'
p2418
I1
sS'ldet'
p2419
I2
sS'svd'
p2420
I7
sS'rldscupsegern'
p2421
I2
sS'kostar'
p2422
I6
sS'ac'
p2423
I36
sS'ab'
p2424
I1514
sS'ae'
p2425
I6
sS'ad'
p2426
I61
sS'USA'
p2427
I10
sS'generad'
p2428
I2
sS'Hon'
p2429
I7
sS'rnamn'
p2430
I3
sS'Pio'
p2431
I1
sS'specialintressen'
p2432
I3
sS'Resguider'
p2433
I5
sS'rdelar'
p2434
I2
sS'an'
p2435
I28
sS'ap'
p2436
I2
sS'Lets'
p2437
I3
sS'pengar'
p2438
I8
sS'ANNIDEWANI'
p2439
I2
sS'av'
p2440
I91
sS'ay'
p2441
I100
sS'shopping'
p2442
I2
sS'nere'
p2443
I3
sS'Thailand'
p2444
I7
sS'film'
p2445
I31
sS'Real'
p2446
I1
sS'again'
p2447
I2
sS'abToplistHeader'
p2448
I3
sS'fiskarnas'
p2449
I2
sS'Syriska'
p2450
I1
sS'radioDay'
p2451
I6
sS'idiot'
p2452
I2
sS'lasarbrev'
p2453
I2
sS'gufaON'
p2454
I3
sS'setupManualAd'
p2455
I9
sS'pappa'
p2456
I6
sS'blodbadet'
p2457
I2
sS'vietnam'
p2458
I1
sS'NordicBet'
p2459
I4
sS'Melodifestivalen'
p2460
I3
sS'stannade'
p2461
I2
sS'nyjuholtpuffen'
p2462
I1
sS'horoskop'
p2463
I3
sS'you'
p2464
I1
sS'Discovery'
p2465
I6
sS'Lady'
p2466
I1
sS'taxonomyParams'
p2467
I15
sS'rdskandaler'
p2468
I2
sS'Buried'
p2469
I2
sS'kolumn'
p2470
I6
sS'rt'
p2471
I4
sS'gifta'
p2472
I1
sS'insats'
p2473
I2
sS'huvudsekreterare'
p2474
I1
sS'medverkan'
p2475
I2
sS'org'
p2476
I9
sS'anst'
p2477
I1
sS'rv'
p2478
I3
sS'Element'
p2479
I6
sS'START'
p2480
I3
sS'kylsk'
p2481
I1
sS'abMainContentContainer'
p2482
I6
sS'hittills'
p2483
I1
sS'terry'
p2484
I2
sS'skapade'
p2485
I1
sS'revsci'
p2486
I3
sS'Clooney'
p2487
I1
sS'oeppnar'
p2488
I4
sS'Ungarna'
p2489
I1
sS'dbdf'
p2490
I1
sS'mcvinter'
p2491
I1
sS'assets'
p2492
I9
sS'rldens'
p2493
I3
sS'megatabbe'
p2494
I2
sS'odds'
p2495
I3
sS'forts'
p2496
I3
sS'smahuspriserna'
p2497
I3
sS'Njut'
p2498
I1
sS'vinner'
p2499
I6
sS'opublicerade'
p2500
I1
sS'abFbLike'
p2501
I6
sS'filmbolag'
p2502
I2
sS'supermodellkvalitet'
p2503
I1
sS'cddd'
p2504
I1
sS'hasClass'
p2505
I6
sS'vader'
p2506
I1
sS'registerClickForTrafikfonden'
p2507
I3
sS'oral'
p2508
I4
sS'konvert'
p2509
I1
sS'rjan'
p2510
I2
sS'gw'
p2511
I3
sS'aring'
p2512
I67
sS'eriksson'
p2513
I2
sS'Haram'
p2514
I2
sS'POPE'
p2515
I1
sS'Mediekritik'
p2516
I3
sS'cdcadf'
p2517
I1
sS'pte'
p2518
I2
sS'Toto'
p2519
I2
sS'Vad'
p2520
I7
sS'vill'
p2521
I28
sS'paradvaning'
p2522
I2
sS'apparna'
p2523
I1
sS'code'
p2524
I21
sS'tahoma'
p2525
I3
sS'Var'
p2526
I2
sS'mna'
p2527
I2
sS'alt'
p2528
I611
sS'userInfoFree'
p2529
I3
sS'jobbiga'
p2530
I2
sS'skampris'
p2531
I2
sS'nster'
p2532
I6
sS'KRONA'
p2533
I2
sS'content'
p2534
I72
sS'tvnu'
p2535
I288
sS'dramatik'
p2536
I2
sS'Sjuan'
p2537
I3
sS'rtinfarkt'
p2538
I2
sS're'
p2539
I1
sS'tv'
p2540
I518
sS'upplopp'
p2541
I5
sS'tt'
p2542
I25
sS'EttanNav'
p2543
I9
sS'tr'
p2544
I43
sS'rtor'
p2545
I3
sS'uppt'
p2546
I1
sS'Norrlands'
p2547
I1
sS'to'
p2548
I7
sS'init'
p2549
I21
sS'program'
p2550
I3
sS'Snabbast'
p2551
I2
sS'ngelholms'
p2552
I6
sS'tf'
p2553
I9
sS'tg'
p2554
I1
sS'kvar'
p2555
I2
sS'te'
p2556
I2
sS'ta'
p2557
I13
sS'BODY'
p2558
I3
sS'abTimestamp'
p2559
I3
sS'verr'
p2560
I2
sS'ihop'
p2561
I4
sS'solen'
p2562
I7
sS'levandehistoria'
p2563
I3
sS'ejklockadebattlive'
p2564
I1
sS'derinstitut'
p2565
I1
sS'removeClass'
p2566
I6
sS'Baftonbladet'
p2567
I55
sS'util'
p2568
I57
sS'sons'
p2569
I1
sS'Stockholm'
p2570
I19
sS'abMultiColPadder'
p2571
I18
sS'verf'
p2572
I1
sS'fab'
p2573
I2
sS'ngs'
p2574
I4
sS'abHeaderContainer'
p2575
I9
sS'faa'
p2576
I3
sS'Viken'
p2577
I3
sS'Svensk'
p2578
I2
sS'liten'
p2579
I11
sS'Behring'
p2580
I4
sS'retur'
p2581
I2
sS'sant'
p2582
I3
sS'ansvarig'
p2583
I6
sS'sverige'
p2584
I40
sS'sans'
p2585
I9
sS'miljoner'
p2586
I23
sS'alternativen'
p2587
I1
sS'toabes'
p2588
I1
sS'Hitta'
p2589
I6
sS'list'
p2590
I15
sS'abInvisible'
p2591
I24
sS'storabloggpriset'
p2592
I3
sS'naturen'
p2593
I1
sS'rktes'
p2594
I1
sS'resan'
p2595
I2
sS'harry'
p2596
I4
sS'small'
p2597
I39
sS'vardagsproblemen'
p2598
I1
sS'Psycho'
p2599
I2
sS'Resa'
p2600
I16
sS'rasism'
p2601
I2
sS'Boka'
p2602
I11
sS'cookies'
p2603
I3
sS'UFC'
p2604
I1
sS'rats'
p2605
I2
sS'ten'
p2606
I4
sS'hitta'
p2607
I16
sS'grekland'
p2608
I1
sS'massor'
p2609
I2
sS'mg'
p2610
I11
sS'abTvArticleTextContainer'
p2611
I2
sS'BEttan'
p2612
I3
sS'Only'
p2613
I6
sS'abS'
p2614
I209
sS'design'
p2615
I3
sS'plugins'
p2616
I6
sS'POLITIK'
p2617
I3
sS'ter'
p2618
I3
sS'tet'
p2619
I8
sS'aba'
p2620
I5
sS'abb'
p2621
I3
sS'Boko'
p2622
I2
sS'milj'
p2623
I3
sS'section'
p2624
I9
sS'delen'
p2625
I4
sS'barnvagnen'
p2626
I2
sS'resguider'
p2627
I34
sS'tsasresan'
p2628
I1
sS'resguiden'
p2629
I5
sS'abs'
p2630
I2
sS'soldater'
p2631
I1
sS'Tiotals'
p2632
I2
sS'sattes'
p2633
I2
sS'menubar'
p2634
I24
sS'method'
p2635
I6
sS'playerWidth'
p2636
I1
sS'full'
p2637
I63
sS'hash'
p2638
I3
sS'Republikanska'
p2639
I3
sS'ngladdningarna'
p2640
I1
sS'abQuestion'
p2641
I3
sS'Alla'
p2642
I6
sS'K'
p2643
I38
sS'Finland'
p2644
I4
sS'modify'
p2645
I3
sS'ndiga'
p2646
I1
sS'Citigroups'
p2647
I2
sS'nordea'
p2648
I6
sS'FACEBOOK'
p2649
I3
sS'rostaWin'
p2650
I3
sS'hast'
p2651
I1
sS'Meteorolog'
p2652
I2
sS'november'
p2653
I8
sS'toolbarMenuPlus'
p2654
I3
sS'fullpath'
p2655
I1
sS'nheten'
p2656
I5
sS'fortfarande'
p2657
I5
sS'Nordicbet'
p2658
I3
sS'search'
p2659
I30
sS'zone'
p2660
I2
sS'rumpa'
p2661
I1
sS'abLeftNavConnector'
p2662
I3
sS'Bildextra'
p2663
I3
sS'mnar'
p2664
I1
sS'minst'
p2665
I3
sS'YAHOO'
p2666
I72
sS'pics'
p2667
I2
sS'getElementById'
p2668
I21
sS'Malm'
p2669
I6
sS'nordamerika'
p2670
I3
sS'social'
p2671
I2
sS'addTab'
p2672
I45
sS'badmadrass'
p2673
I1
sS'Skapa'
p2674
I3
sS'muskelpaket'
p2675
I3
sS'basejavascript'
p2676
I3
sS'Perssons'
p2677
I2
sS'dagensfraga'
p2678
I3
sS'family'
p2679
I37
sS'Wendel'
p2680
I1
sS'Sten'
p2681
I1
sS'gick'
p2682
I13
sS'ggr'
p2683
I1
sS'vin'
p2684
I7
sS'DOCTYPE'
p2685
I3
sS'Filip'
p2686
I6
sS'abSearchStreamer'
p2687
I9
sS'rder'
p2688
I1
sS'href'
p2689
I2753
sS'Linderborg'
p2690
I2
sS'familj'
p2691
I4
sS'vit'
p2692
I3
sS'sId'
p2693
I66
sS'tusenlappar'
p2694
I2
sS'spelaren'
p2695
I3
sS'bloggportalen'
p2696
I4
sS'select'
p2697
I6
sS've'
p2698
I3
sS'tacka'
p2699
I2
sS'onlinev'
p2700
I1
sS'hyllning'
p2701
I2
sS'premiumServices'
p2702
I1
sS'Explorer'
p2703
I3
sS'danielswedin'
p2704
I2
sS'hyllar'
p2705
I1
sS'destination'
p2706
I109
sS'hem'
p2707
I14
sS'branden'
p2708
I2
sS'Tillbaka'
p2709
I2
sS'Spanien'
p2710
I4
sS'BrittMarieStegsBOX'
p2711
I1
sS'Peak'
p2712
I2
sS'Versacekollektion'
p2713
I1
sS'vi'
p2714
I14
sS'Fahrman'
p2715
I1
sS'Beg'
p2716
I1
sS'addff'
p2717
I2
sS'adtech'
p2718
I51
sS'mord'
p2719
I1
sS'more'
p2720
I6
sS'Rumpor'
p2721
I1
sS'abPlusTopToolbarContainer'
p2722
I3
sS'landet'
p2723
I2
sS'door'
p2724
I1
sS'brytas'
p2725
I2
sS'alltid'
p2726
I2
sS'glas'
p2727
I4
sS'harligt'
p2728
I4
sS'getGroupId'
p2729
I102
sS'Sv'
p2730
I1
sS'perukerna'
p2731
I1
sS'St'
p2732
I7
sS'Sk'
p2733
I14
sS'terror'
p2734
I1
sS'American'
p2735
I3
sS'diskvatten'
p2736
I4
sS'Sn'
p2737
I2
sS'PUFF'
p2738
I2
sS'Arla'
p2739
I3
sS'abToplistFooter'
p2740
I3
sS'Se'
p2741
I47
sS'naturligt'
p2742
I1
sS'none'
p2743
I173
sS'ANYTHING'
p2744
I3
sS'leftNavigationSelectedSection'
p2745
I3
sS'abToolbarSearch'
p2746
I6
sS'SR'
p2747
I4
sS'der'
p2748
I14
sS'det'
p2749
I40
sS'slitsen'
p2750
I1
sS'bomber'
p2751
I1
sS'Godk'
p2752
I1
sS'abTvArticlePlayerClickOverlayInner'
p2753
I1
sS'notLoggedInLeftV'
p2754
I6
sS'del'
p2755
I5
sS'dem'
p2756
I3
sS'den'
p2757
I25
sS'v'
p2758
I125
sS'rmavbild'
p2759
I12
sS'factsheet'
p2760
I21
sS'dec'
p2761
I2
sS'SE'
p2762
I3
sS'Inc'
p2763
I3
sS'Nalin'
p2764
I1
sS'setupAdArea'
p2765
I51
sS'mandelmassa'
p2766
I8
sS'share'
p2767
I3
sS'huvudstaden'
p2768
I1
sS'Hantverkare'
p2769
I3
sS'vackraste'
p2770
I1
sS'signerat'
p2771
I2
sS'kadhammar'
p2772
I1
sS'lurad'
p2773
I1
sS'arneNY'
p2774
I2
sS'Uppr'
p2775
I1
sS'biltester'
p2776
I10
sS'Kenya'
p2777
I2
sS'historiskt'
p2778
I1
sS'Botades'
p2779
I1
sS'fiskny'
p2780
I2
sS'nattack'
p2781
I2
sS'SAS'
p2782
I2
sS'namnge'
p2783
I2
sS'ndagen'
p2784
I6
sS'imageColumn'
p2785
I177
sS'salongen'
p2786
I8
sS'Spara'
p2787
I6
sS'dahlos'
p2788
I2
sS'korseld'
p2789
I3
sS'lejon'
p2790
I1
sS'Bastian'
p2791
I2
sS'playerHeight'
p2792
I1
sS'Mythbusters'
p2793
I3
sS'css'
p2794
I24
sS'ytterligare'
p2795
I1
sS'samarbetet'
p2796
I1
sS'fr'
p2797
I51
sS'kund'
p2798
I3
sS'Laul'
p2799
I3
sS'binary'
p2800
I6
sS'Upplev'
p2801
I4
sS'nordeas'
p2802
I2
sS'Dog'
p2803
I1
sS'Eberstein'
p2804
I1
sS'okar'
p2805
I1
sS'fa'
p2806
I11
sS'fb'
p2807
I13
sS'disableCommunity'
p2808
I3
sS'fd'
p2809
I20
sS'fe'
p2810
I5
sS'ff'
p2811
I19
sS'Lisa'
p2812
I2
sS'horizontal'
p2813
I3
sS'Johan'
p2814
I6
sS'fl'
p2815
I2
sS'svea'
p2816
I2
sS'Eva'
p2817
I2
sS'a'
p2818
I5663
sS'SKILDA'
p2819
I2
sS'starta'
p2820
I2
sS'nyhetsk'
p2821
I6
sS'Dimitri'
p2822
I2
sS'tabview'
p2823
I9
sS'Mustaschkampen'
p2824
I3
sS'register'
p2825
I1
sS'stasi'
p2826
I2
sS'Ljungberg'
p2827
I2
sS'shore'
p2828
I2
sS'RuPauls'
p2829
I2
sS'Olle'
p2830
I4
sS'grande'
p2831
I3
sS'abToplistLink'
p2832
I30
sS'bugg'
p2833
I2
sS'Film'
p2834
I6
sS'RSS'
p2835
I12
sS'helt'
p2836
I3
sS'Sami'
p2837
I4
sS'knarna'
p2838
I2
sS'Arial'
p2839
I6
sS'bloggar'
p2840
I11
sS'ger'
p2841
I24
sS'getTime'
p2842
I51
sS'taxonomy'
p2843
I15
sS'YUI'
p2844
I7
sS'ffs'
p2845
I1
sS'rsvararen'
p2846
I2
sS'hela'
p2847
I20
sS'ljande'
p2848
I1
sS'kunskapskanalen'
p2849
I12
sS'ffe'
p2850
I6
sS'Leif'
p2851
I1
sS'ffb'
p2852
I2
sS'ffa'
p2853
I4
sS'cker'
p2854
I5
sS'hundratusentals'
p2855
I1
sS'style'
p2856
I1437
sS'arial'
p2857
I9
sS'Copyright'
p2858
I3
sS'alla'
p2859
I17
sS'Idolvinnarens'
p2860
I2
sS'allm'
p2861
I8
sS'homosexuella'
p2862
I1
sS'handheld'
p2863
I3
sS'lyxklockan'
p2864
I1
sS'rikt'
p2865
I2
sS'allt'
p2866
I6
sS'PLUS'
p2867
I97
sS'HOCKEY'
p2868
I2
sS'abRostResultat'
p2869
I3
sS'fikat'
p2870
I1
sS'smakl'
p2871
I1
sS'sliter'
p2872
I1
sS'mostviewedUrlBase'
p2873
I12
sS'laultalking'
p2874
I3
sS'return'
p2875
I52
sS'Spelade'
p2876
I2
sS'resizable'
p2877
I24
sS'redakt'
p2878
I3
sS'Michael'
p2879
I5
sS'tisdag'
p2880
I3
sS'rutabalk'
p2881
I3
sS'SVTB'
p2882
I3
sS'arbetet'
p2883
I3
sS'Floridas'
p2884
I1
sS'sofismodeshop'
p2885
I4
sS'allowtransparency'
p2886
I3
sS'Erbjudandet'
p2887
I2
sS'forumbox'
p2888
I3
sS'bbe'
p2889
I1
sS'grekisk'
p2890
I1
sS'Anette'
p2891
I2
sS'Lagan'
p2892
I2
sS'Monica'
p2893
I1
sS'document'
p2894
I114
sS'Episod'
p2895
I1
sS'war'
p2896
I1
sS'tabType'
p2897
I51
sS'Bytbil'
p2898
I3
sS'kroatien'
p2899
I3
sS'sexlust'
p2900
I2
sS'tusental'
p2901
I1
sS'skrivit'
p2902
I2
sS'genom'
p2903
I4
sS'skenar'
p2904
I8
sS'Sport'
p2905
I15
sS'abTastelineIcon'
p2906
I4
sS'fara'
p2907
I1
sS'vikt'
p2908
I42
sS'Svenske'
p2909
I1
sS'gfx'
p2910
I941
sS'dig'
p2911
I28
sS'End'
p2912
I142
sS'contentEl'
p2913
I3
sS'weight'
p2914
I78
sS'appName'
p2915
I3
sS'betyg'
p2916
I5
sS'ultrabook'
p2917
I3
sS'skakar'
p2918
I2
sS'Balenciaga'
p2919
I1
sS'femtio'
p2920
I1
sS'Zelda'
p2921
I1
sS'besked'
p2922
I1
sS'carvalho'
p2923
I1
sS'cvalue'
p2924
I3
sS'Maten'
p2925
I2
sS'AAC'
p2926
I3
sS'aldrig'
p2927
I6
sS'psd'
p2928
I1
sS'americanexpress'
p2929
I6
sS'linkan'
p2930
I2
sS'leftNavigationSelected'
p2931
I3
sS'fotbollsbladet'
p2932
I3
sS'evaefva'
p2933
I2
sS'specialblogg'
p2934
I1
sS'Webbpuff'
p2935
I3
sS'kulturochnoje'
p2936
I2
sS'rekomma'
p2937
I1
sS'sanningen'
p2938
I2
sS'boxDivClasses'
p2939
I278
sS'Clash'
p2940
I2
sS'Omd'
p2941
I2
sS'zlatans'
p2942
I5
sS'omr'
p2943
I1
sS'myst'
p2944
I2
sS'Livsstil'
p2945
I3
sS'research'
p2946
I3
sS'TESTA'
p2947
I2
sS'ksadress'
p2948
I3
sS'Bbors'
p2949
I24
sS'Omv'
p2950
I2
sS'kvinna'
p2951
I7
sS'print'
p2952
I3
sS'onfocus'
p2953
I9
sS'kopplar'
p2954
I2
sS'villiga'
p2955
I2
sS'EM'
p2956
I2
sS'bostadsbidragsaff'
p2957
I1
sS'EN'
p2958
I3
sS'Tab'
p2959
I3
sS'setts'
p2960
I1
sS'efternamn'
p2961
I3
sS'adsby'
p2962
I3
sS'Chans'
p2963
I3
sS'Nina'
p2964
I4
sS'Rekorddiamant'
p2965
I1
sS'kostade'
p2966
I1
sS'base'
p2967
I6
sS'cookie'
p2968
I54
sS'JPEG'
p2969
I1
sS'rmen'
p2970
I9
sS'TERRORD'
p2971
I2
sS'EU'
p2972
I1
sS'Chang'
p2973
I3
sS'setTimeout'
p2974
I3
sS'mma'
p2975
I2
sS'billigare'
p2976
I3
sS'kritiserar'
p2977
I2
sS'polisen'
p2978
I7
sS'faller'
p2979
I2
sS'toggle'
p2980
I6
sS'dejt'
p2981
I2
sS'bets'
p2982
I2
sS'Placera'
p2983
I3
sS'Mannen'
p2984
I2
sS'Synd'
p2985
I1
sS'script'
p2986
I314
sS'sportchefen'
p2987
I2
sS'IK'
p2988
I2
sS'boenden'
p2989
I1
sS'mardr'
p2990
I2
sS'Ikeabomber'
p2991
I1
sS'fabricerat'
p2992
I1
sS'NASA'
p2993
I3
sS'Ex'
p2994
I1
sS'puffar'
p2995
I6
sS'Et'
p2996
I2
sS'snabb'
p2997
I1
sS'gif'
p2998
I398
sS'Italiens'
p2999
I2
sS'Eurosport'
p3000
I6
sS'Handen'
p3001
I2
sS'Flygande'
p3002
I1
sS'dina'
p3003
I7
sS'Breadcrumbs'
p3004
I3
sS'misc'
p3005
I79
sS'leftNavigationFolder'
p3006
I3
sS'getTarget'
p3007
I12
sS'nelistor'
p3008
I2
sS'Den'
p3009
I6
sS'Falun'
p3010
I4
sS'krossar'
p3011
I3
sS'blank'
p3012
I703
sS'bland'
p3013
I2
sS'HTTP'
p3014
I2
sS'abToplistShowMore'
p3015
I3
sS'rygg'
p3016
I2
sS'jer'
p3017
I2
sS'omv'
p3018
I1
sS'mobilen'
p3019
I13
sS'diskriminering'
p3020
I2
sS'bokliv'
p3021
I12
sS'Naturk'
p3022
I1
sS'Verdana'
p3023
I24
sS'abAdPositionBoxE'
p3024
I18
sS'abAdPositionBoxB'
p3025
I39
sS'stort'
p3026
I3
sS'abSourceDateTime'
p3027
I24
sS'skvaller'
p3028
I1
sS'Ledarbloggen'
p3029
I2
sS'tvplayer'
p3030
I3
sS'dfe'
p3031
I4
sS'stora'
p3032
I1
sS'dff'
p3033
I2
sS'dfa'
p3034
I1
sS'kvalet'
p3035
I2
sS'sekunder'
p3036
I2
sS'free'
p3037
I6
sS'nlighet'
p3038
I2
sS'rdnadsn'
p3039
I2
sS'Justin'
p3040
I2
sS'tappade'
p3041
I2
sS'Ekonominyheter'
p3042
I3
sS'Anja'
p3043
I1
sS'ggledare'
p3044
I1
sS'lyxhotell'
p3045
I2
sS'Malin'
p3046
I1
sS'tracking'
p3047
I3
sS'TVPlayer'
p3048
I2
sS'Finske'
p3049
I2
sS'webtraffic'
p3050
I3
sS'Imorgon'
p3051
I3
sS'abBody'
p3052
I3
sS'aae'
p3053
I2
sS'ste'
p3054
I8
sS'kropphalsa'
p3055
I3
sS'Bankelitens'
p3056
I2
sS'sta'
p3057
I17
sS'Maxipuff'
p3058
I3
sS'aab'
p3059
I1
sS'avtal'
p3060
I2
sS'andersson'
p3061
I1
sS'lyxfallan'
p3062
I5
sS'ndska'
p3063
I1
sS'stj'
p3064
I14
sS'dtd'
p3065
I3
sS'stv'
p3066
I2
sS'III'
p3067
I1
sS'Lisbeth'
p3068
I4
sS'str'
p3069
I2
sS'uttr'
p3070
I2
sS'Gervais'
p3071
I2
sS'klubb'
p3072
I3
sS'dana'
p3073
I2
sS'Damages'
p3074
I2
sS'rklara'
p3075
I10
sS'tillvaxtforetag'
p3076
I1
sS'packar'
p3077
I2
sS'visning'
p3078
I3
sS'xY'
p3079
I1
sS'elefantens'
p3080
I2
sS'bakom'
p3081
I1
sS'tasteline'
p3082
I44
sS'favicon'
p3083
I3
sS'nnas'
p3084
I5
sS'fantastiskt'
p3085
I2
sS'murder'
p3086
I2
sS'graffiti'
p3087
I2
sS'Nicole'
p3088
I1
sS'utryckning'
p3089
I2
sS'null'
p3090
I12
sS'Yeater'
p3091
I2
sS'option'
p3092
I126
sS'getAncestorBy'
p3093
I9
sS'resmal'
p3094
I22
sS'favoritlook'
p3095
I1
sS'Power'
p3096
I3
sS'xtcore'
p3097
I3
sS'trip'
p3098
I1
sS'mediernas'
p3099
I1
sS'tvnuch'
p3100
I9
sS'Janne'
p3101
I1
sS'gsamt'
p3102
I1
sS'levererar'
p3103
I2
sS'liv'
p3104
I10
sS'rburgring'
p3105
I2
sS'build'
p3106
I27
sS'Kim'
p3107
I2
sS'allowTransparency'
p3108
I3
sS'efa'
p3109
I3
sS'Widman'
p3110
I3
sS'knepen'
p3111
I1
sS'JBwSW'
p3112
I1
sS'totals'
p3113
I1
sS'Kult'
p3114
I3
sS'ttbj'
p3115
I1
sS'play'
p3116
I3
sS'Mourinho'
p3117
I2
sS'Wulcan'
p3118
I2
sS'components'
p3119
I6
sS'Megapuff'
p3120
I3
sS'elitsoldaten'
p3121
I2
sS'Thu'
p3122
I3
sS'Klicka'
p3123
I6
sS'M'
p3124
I31
sS'kan'
p3125
I44
sS'Baka'
p3126
I2
sS'Ist'
p3127
I2
sS'kar'
p3128
I1
sS'extraWide'
p3129
I10
sS'kap'
p3130
I2
sS'jsp'
p3131
I24
sS'SIGNERAT'
p3132
I1
sS'nyttigt'
p3133
I1
sS'skidor'
p3134
I8
sS'Fotboll'
p3135
I3
sS'The'
p3136
I15
sS'persson'
p3137
I2
sS'riskabel'
p3138
I1
sS'ka'
p3139
I3
sS'Kartellen'
p3140
I4
sS'CLAUSEN'
p3141
I2
sS'llstidning'
p3142
I3
sS'mobile'
p3143
I2
sS'abTeaserText'
p3144
I565
sS'clear'
p3145
I78
sS'hansson'
p3146
I1
sS'Keno'
p3147
I1
sS'Marie'
p3148
I2
sS'parentNode'
p3149
I3
sS'Sticky'
p3150
I3
sS'abPlusTopToolbarNotLoggedInLeft'
p3151
I6
sS'kanaler'
p3152
I6
sS'kroppen'
p3153
I2
sS'kv'
p3154
I4
sS'jubileums'
p3155
I1
sS'abTopMenuPlusMenu'
p3156
I3
sS'TEST'
p3157
I3
sS'ndiseliten'
p3158
I2
sS'favela'
p3159
I2
sS'Minsta'
p3160
I3
sS'microsoft'
p3161
I15
sS'Cracknells'
p3162
I2
sS'cdd'
p3163
I3
sS'cde'
p3164
I1
sS'cdf'
p3165
I3
sS'multimedia'
p3166
I6
sS'abColDivider'
p3167
I74
sS'Han'
p3168
I14
sS'jubileumsavsnitt'
p3169
I1
sS'cdn'
p3170
I590
sS'Rysskyla'
p3171
I2
sS'Historien'
p3172
I3
sS'fileLoader'
p3173
I3
sS'arrMegaPuffIds'
p3174
I9
sS'kantat'
p3175
I1
sS'vanlig'
p3176
I1
sS'Trion'
p3177
I1
sS'abStreamerImageColumn'
p3178
I222
sS'Landslagsstj'
p3179
I2
sS'font'
p3180
I287
sS'ciderkungen'
p3181
I1
sS'muslimsk'
p3182
I1
sS'glammiga'
p3183
I2
sS'eef'
p3184
I1
sS'rnornas'
p3185
I1
sS'Boys'
p3186
I1
sS'scr'
p3187
I51
sS'xtnv'
p3188
I3
sS'Tr'
p3189
I2
sS'statStart'
p3190
I3
sS'articletoplist'
p3191
I6
sS'rande'
p3192
I13
sS'cebf'
p3193
I2
sS'Programkommissionscomebacker'
p3194
I1
sS'Vd'
p3195
I3
sS'Karlssons'
p3196
I2
sS'ivarsson'
p3197
I2
sS'bostadskandia'
p3198
I2
sS'ktade'
p3199
I1
sS'tillg'
p3200
I3
sS'Pool'
p3201
I1
sS'dramatiska'
p3202
I2
sS'elemClass'
p3203
I12
sS'DiCaprio'
p3204
I2
sS'sjuan'
p3205
I12
sS'recepten'
p3206
I2
sS'gratis'
p3207
I1
sS'Breivik'
p3208
I10
sS'utrikes'
p3209
I25
sS'kommentarer'
p3210
I1
sS'soligaste'
p3211
I1
sS'kommit'
p3212
I1
sS'inklusive'
p3213
I2
sS'pirrigt'
p3214
I2
sS'omtalade'
p3215
I1
sS'adct'
p3216
I3
sS'b'
p3217
I332
sS'skallade'
p3218
I2
sS'rekorddiamant'
p3219
I1
sS'international'
p3220
I2
sS'nnerna'
p3221
I1
sS'Suredo'
p3222
I3
sS'finans'
p3223
I6
sS'Richies'
p3224
I1
sS'direkt'
p3225
I18
sS'Guiden'
p3226
I4
sS'stra'
p3227
I4
sS'Dubrovnik'
p3228
I1
sS'aac'
p3229
I1
sS'transitional'
p3230
I3
sS'gda'
p3231
I1
sS'THIS'
p3232
I3
sS'ledare'
p3233
I26
sS'vilken'
p3234
I10
sS'bildspel'
p3235
I3
sS'boers'
p3236
I1
sS'Bluetooth'
p3237
I2
sS'abPlusStreamerShop'
p3238
I3
sS'Shoppa'
p3239
I4
sS'Hela'
p3240
I1
sS'knarkaff'
p3241
I1
sS'activity'
p3242
I3
sS'pinsamma'
p3243
I2
sS'x'
p3244
I125
sS'huset'
p3245
I6
sS'samlade'
p3246
I1
sS'svarar'
p3247
I3
sS'Jakten'
p3248
I1
sS'smsnumber'
p3249
I3
sS'underg'
p3250
I2
sS'abToplistDayRadio'
p3251
I9
sS'retar'
p3252
I2
sS'For'
p3253
I6
sS'krism'
p3254
I2
sS'showen'
p3255
I3
sS'VICTORIA'
p3256
I2
sS'graviditeten'
p3257
I2
sS'kikare'
p3258
I1
sS'ving'
p3259
I2
sS'tidigare'
p3260
I2
sS'bara'
p3261
I4
sS'superfynd'
p3262
I2
sS'see'
p3263
I3
sS'konkurs'
p3264
I1
sS'are'
p3265
I4
sS'lyckas'
p3266
I2
sS'sen'
p3267
I8
sS'abMultiColPadderFirst'
p3268
I37
sS'L'
p3269
I34
sS'barn'
p3270
I16
sS'nings'
p3271
I2
sS'fullscreen'
p3272
I1
sS'Prisnedg'
p3273
I1
sS'krislaget'
p3274
I2
sS'expert'
p3275
I1
sS'hangmorat'
p3276
I3
sS'tufft'
p3277
I2
sS'inga'
p3278
I1
sS'ALTER'
p3279
I3
sS'rjade'
p3280
I2
sS'fans'
p3281
I1
sS'fotbollshistorien'
p3282
I1
sS'IPHONE'
p3283
I1
sS'use'
p3284
I10
sS'Ryska'
p3285
I2
sS'modeshop'
p3286
I1
sS'vertr'
p3287
I1
sS'tittare'
p3288
I2
sS'champagne'
p3289
I4
sS'law'
p3290
I2
sS'Donatella'
p3291
I1
sS'available'
p3292
I3
sS'Assads'
p3293
I1
sS'ryttaren'
p3294
I1
sS'europa'
p3295
I3
sS'ikv'
p3296
I4
sS'interaktiv'
p3297
I3
sS'abTvArticlePlayer'
p3298
I7
sS'Vilken'
p3299
I6
sS'Bildspel'
p3300
I5
sS'rostform'
p3301
I3
sS'vapenaff'
p3302
I1
sS'flygplats'
p3303
I1
sS'Elpriser'
p3304
I3
sS'Tidning'
p3305
I2
sS'abAdPlacementInsider'
p3306
I12
sS'videoStreamingIsAdaptive'
p3307
I1
sS'dersajt'
p3308
I1
sS'debutbetyg'
p3309
I2
sS'Costello'
p3310
I4
sS'both'
p3311
I78
sS'c'
p3312
I237
sS'musklerna'
p3313
I1
sS'Lundhs'
p3314
I1
sS'dummyPlayerHeadlineDivId'
p3315
I1
sS'skr'
p3316
I1
sS'dar'
p3317
I1
sS'event'
p3318
I16
sS'Bl'
p3319
I2
sS'connection'
p3320
I6
sS'Dokument'
p3321
I2
sS'boende'
p3322
I3
sS'buzz'
p3323
I5
sS'pdf'
p3324
I6
sS'Yes'
p3325
I6
sS'Mardr'
p3326
I2
sS'kandis'
p3327
I3
sS'leftNavigationMainMenu'
p3328
I6
sS'ttre'
p3329
I3
sS'load'
p3330
I3
sS'abSectionPrefix'
p3331
I21
sS'samma'
p3332
I7
sS'myprofile'
p3333
I1
sS'flygbolaget'
p3334
I1
sS'efterlysta'
p3335
I1
sS'Petterson'
p3336
I1
sS'Mr'
p3337
I2
sS'arbetsmarknadssallad'
p3338
I4
sS'header'
p3339
I9
sS'engagerande'
p3340
I3
sS'ckt'
p3341
I3
sS'musik'
p3342
I30
sS'fantastiska'
p3343
I1
sS'Lynley'
p3344
I2
sS'rockar'
p3345
I2
sS'msta'
p3346
I2
sS'Cabin'
p3347
I2
sS'kulturbloggen'
p3348
I9
sS'ntat'
p3349
I2
sS'pp'
p3350
I2
sS'FASHION'
p3351
I2
sS'kampanjbolaget'
p3352
I1
sS'Wendela'
p3353
I19
sS'pt'
p3354
I52
sS'RELIGION'
p3355
I1
sS'rnor'
p3356
I1
sS'nader'
p3357
I2
sS'px'
p3358
I2687
sS'tygaff'
p3359
I1
sS'Lyxkrog'
p3360
I2
sS'Vignette'
p3361
I9
sS'swf'
p3362
I1
sS'rets'
p3363
I6
sS'ran'
p3364
I2
sS'pa'
p3365
I16
sS'change'
p3366
I3
sS'En'
p3367
I17
sS'resultat'
p3368
I3
sS'Vickan'
p3369
I2
sS'Uniteds'
p3370
I1
sS'pl'
p3371
I4
sS'ringslivets'
p3372
I2
sS'Tyngdlyftning'
p3373
I3
sS'box'
p3374
I4
sS'solexplosion'
p3375
I2
sS'BALK'
p3376
I2
sS'Family'
p3377
I1
sS'Kickstarta'
p3378
I1
sS'vanv'
p3379
I2
sS'gav'
p3380
I2
sS'gat'
p3381
I1
sS'gar'
p3382
I13
sS'gaq'
p3383
I15
sS'N'
p3384
I51
sS'ggets'
p3385
I2
sS'Krabi'
p3386
I1
sS'livet'
p3387
I1
sS'cee'
p3388
I1
sS'hasOwnProperty'
p3389
I3
sS'rnkraftverket'
p3390
I2
sS'storfragan'
p3391
I6
sS'incoming'
p3392
I7
sS'asklund'
p3393
I1
sS'demente'
p3394
I2
sS'vann'
p3395
I5
sS'Kapitalets'
p3396
I4
sS'Wars'
p3397
I1
sS'bild'
p3398
I2
sS'Kvalitet'
p3399
I2
sS'turister'
p3400
I2
sS'juice'
p3401
I1
sS'solid'
p3402
I78
sS'rdr'
p3403
I2
sS'tillverkarna'
p3404
I2
sS'sare'
p3405
I6
sS'omkommit'
p3406
I1
sS'Mage'
p3407
I5
sS'error'
p3408
I1
sS'Miss'
p3409
I2
sS'klader'
p3410
I12
sS'getMinutes'
p3411
I3
sS'objNewWin'
p3412
I48
sS'Mayakalendern'
p3413
I2
sS'demok'
p3414
I1
sS'von'
p3415
I6
sS'motesplatsen'
p3416
I9
sS'motors'
p3417
I2
sS'Versacekollektionen'
p3418
I1
sS'jpg'
p3419
I361
sS'slutat'
p3420
I1
sS'decoration'
p3421
I42
sS'Tio'
p3422
I3
sS'Universitetssjukhus'
p3423
I1
sS'rig'
p3424
I2
sS'mainSectionName'
p3425
I3
sS'Jennifer'
p3426
I1
sS'contet'
p3427
I12
sS'Kanske'
p3428
I2
sS'wwwc'
p3429
I6
sS'wwwb'
p3430
I3
sS'schulmanshow'
p3431
I13
sS'VERSACE'
p3432
I1
sS'ettanivnavven'
p3433
I3
sS'Apple'
p3434
I1
sS'debyggen'
p3435
I4
sS'butcher'
p3436
I4
sS'Konsert'
p3437
I2
sS'lastminute'
p3438
I46
sS'bok'
p3439
I2
sS'urusel'
p3440
I1
sS'onclick'
p3441
I28
sS'kritiken'
p3442
I1
sS'day'
p3443
I3
sS'laddning'
p3444
I2
sS'Skandal'
p3445
I2
sS'Jarkko'
p3446
I2
sS'vinterd'
p3447
I2
sS'Motor'
p3448
I3
sS'heaven'
p3449
I1
sS'tvnucc'
p3450
I12
sS'Kalfj'
p3451
I1
sS'Kritvita'
p3452
I2
sS'Hejd'
p3453
I2
sS'fotbollsfrun'
p3454
I1
sS'alert'
p3455
I3
sS'identiteter'
p3456
I1
sS'konstnumret'
p3457
I1
sS'user'
p3458
I6
sS'mobiltelefoni'
p3459
I6
sS'abPlusTopToolbarLoginLink'
p3460
I3
sS'baseballtr'
p3461
I1
sS'programledare'
p3462
I1
sS'fyra'
p3463
I2
sS'vargar'
p3464
I4
sS'roliga'
p3465
I1
sS'recent'
p3466
I1
sS'net'
p3467
I10
sS'daren'
p3468
I2
sS'redesignen'
p3469
I3
sS'italiensk'
p3470
I2
sS'sudda'
p3471
I2
sS'Som'
p3472
I12
sS'halva'
p3473
I2
sS'kna'
p3474
I1
sS'Oscars'
p3475
I2
sS'bortgl'
p3476
I2
sS'regim'
p3477
I3
sS'sidbotten'
p3478
I9
sS'johan'
p3479
I3
sS'kysser'
p3480
I1
sS'Bruksvallarna'
p3481
I2
sS'hermanlindqvist'
p3482
I10
sS'cbfbb'
p3483
I2
sS'jda'
p3484
I1
sS'Kritiker'
p3485
I1
sS'senaste'
p3486
I14
sS'vertramp'
p3487
I1
sS'trackPageview'
p3488
I3
sS'Barnvagnar'
p3489
I2
sS'skal'
p3490
I2
sS'RAmmar'
p3491
I1
sS'blueray'
p3492
I12
sS'startat'
p3493
I1
sS'Bernard'
p3494
I1
sS'inlett'
p3495
I1
sS'OAS'
p3496
I33
sS'abredesign'
p3497
I3
sS'Internet'
p3498
I3
sS'kesson'
p3499
I2
sS'ledarebalk'
p3500
I2
sS'henne'
p3501
I2
sS'Marsa'
p3502
I3
sS'quentPUFF'
p3503
I1
sS'fredrikvirtanen'
p3504
I4
sS'blankett'
p3505
I2
sS'Syrien'
p3506
I2
sS'rnsdr'
p3507
I1
sS'alternate'
p3508
I15
sS'powerplay'
p3509
I3
sS'bostad'
p3510
I4
sS'testet'
p3511
I2
sS'opensearchdescription'
p3512
I3
sS'utsikt'
p3513
I1
sS'source'
p3514
I118
sS'mandag'
p3515
I1
sS'abToolbarUserName'
p3516
I3
sS'Christopher'
p3517
I1
sS'location'
p3518
I33
sS'ndigt'
p3519
I3
sS'input'
p3520
I41
sS'Versaces'
p3521
I2
sS'Gammal'
p3522
I1
sS'Tackla'
p3523
I1
sS'gtrycket'
p3524
I2
sS'Sexigaste'
p3525
I1
sS'dubbelt'
p3526
I1
sS'bil'
p3527
I37
sS'emot'
p3528
I3
sS'Cushnie'
p3529
I2
sS'hemmafru'
p3530
I4
sS'djuriskt'
p3531
I1
sS'insert'
p3532
I3
sS'Outsider'
p3533
I12
sS'synnerhet'
p3534
I1
sS'pekguls'
p3535
I1
sS'dning'
p3536
I9
sS'newValue'
p3537
I3
sS'fotobok'
p3538
I2
sS'Fashion'
p3539
I1
sS'abInnerBody'
p3540
I6
sS'Tarantino'
p3541
I1
sS'pMIG'
p3542
I3
sS'bit'
p3543
I15
sS'ndiskr'
p3544
I1
sS'innan'
p3545
I3
sS'dagensbastaspel'
p3546
I3
sS'abSesamSearch'
p3547
I3
sS'stoppade'
p3548
I2
sS'onchange'
p3549
I3
sS'd'
p3550
I258
sS'resVer'
p3551
I3
sS'garna'
p3552
I2
sS'OF'
p3553
I1
sS'direktoren'
p3554
I6
sS'lje'
p3555
I2
sS'jag'
p3556
I22
sS'hittar'
p3557
I9
sS'Logga'
p3558
I9
sS'handlare'
p3559
I1
sS'mycket'
p3560
I6
sS'eeb'
p3561
I3
sS'love'
p3562
I1
sS'google'
p3563
I3
sS'articleXmlSrc'
p3564
I1
sS'Billgren'
p3565
I1
sS'Internationellt'
p3566
I1
sS'saknar'
p3567
I2
sS'getHours'
p3568
I3
sS'DET'
p3569
I2
sS'Tisdag'
p3570
I3
sS'saknat'
p3571
I2
sS'kulturskatt'
p3572
I2
sS'skyldiga'
p3573
I2
sS'abToplistContainer'
p3574
I3
sS'sight'
p3575
I2
sS'Handbollsstj'
p3576
I1
sS'abFooterEditorBox'
p3577
I3
sS'utklassa'
p3578
I2
sS'Channel'
p3579
I3
sS'warnerbros'
p3580
I2
sS'Misst'
p3581
I2
sS'ldrandet'
p3582
I2
sS'String'
p3583
I3
sS'FL'
p3584
I3
sS'Budgetpris'
p3585
I1
sS'kronikorer'
p3586
I10
sS'sajter'
p3587
I2
sS'per'
p3588
I4
sS'noIndent'
p3589
I6
sS'sajten'
p3590
I3
sS'slashingen'
p3591
I1
sS'landslagsfotboll'
p3592
I17
sS'Facebookfascister'
p3593
I2
sS'nyhetsdygnet'
p3594
I3
sS'AMR'
p3595
I1
sS'terer'
p3596
I2
sS'larm'
p3597
I2
sS'illvettiga'
p3598
I1
sS'relationsfr'
p3599
I2
sS'jobbresan'
p3600
I3
sS'bf'
p3601
I11
sS'rdet'
p3602
I2
sS'rbryllar'
p3603
I1
sS'ba'
p3604
I12
sS'bb'
p3605
I7
sS'bc'
p3606
I14
sS'bl'
p3607
I3
sS'vinstkrav'
p3608
I2
sS'bo'
p3609
I2
sS'sten'
p3610
I5
sS'Lena'
p3611
I6
sS'Kalkon'
p3612
I4
sS'Hawaii'
p3613
I2
sS'korsnasgarden'
p3614
I2
sS'rdar'
p3615
I2
sS'sellSiteId'
p3616
I5
sS'br'
p3617
I99
sS'abBreadcrumbsClick'
p3618
I6
sS'Prylarna'
p3619
I1
sS'nederb'
p3620
I3
sS'GUIDE'
p3621
I2
sS'O'
p3622
I4
sS'usa'
p3623
I3
sS'podcaster'
p3624
I15
sS'stning'
p3625
I15
sS'RLDAR'
p3626
I2
sS'Att'
p3627
I4
sS'Telefon'
p3628
I3
sS'page'
p3629
I36
sS'Bara'
p3630
I1
sS'MMPuff'
p3631
I15
sS'range'
p3632
I3
sS'linkTrack'
p3633
I18
sS'ndes'
p3634
I2
sS'nder'
p3635
I7
sS'Hurghada'
p3636
I9
sS'vnav'
p3637
I6
sS'block'
p3638
I59
sS'Barn'
p3639
I3
sS'inte'
p3640
I24
sS'gripna'
p3641
I1
sS'fem'
p3642
I4
sS'gatubild'
p3643
I1
sS'bildextra'
p3644
I1
sS'soffpotatis'
p3645
I1
sS'matchens'
p3646
I2
sS'Holmqvist'
p3647
I2
sS'dligt'
p3648
I1
sS'utmaninga'
p3649
I2
sS'Visar'
p3650
I2
sS'abMarker'
p3651
I3
sS'Boken'
p3652
I1
sS'Testar'
p3653
I1
sS'barnet'
p3654
I1
sS'Skippa'
p3655
I1
sS'jobbat'
p3656
I1
sS'xtra'
p3657
I1
sS'canal'
p3658
I24
sS'Leifbys'
p3659
I2
sS'seger'
p3660
I2
sS'span'
p3661
I4304
sS'Unibets'
p3662
I1
sS'veckor'
p3663
I5
sS'Morden'
p3664
I2
sS'kryssningar'
p3665
I2
sS'submit'
p3666
I3
sS'handsfreesamtal'
p3667
I2
sS'vattenmelon'
p3668
I1
sS'llda'
p3669
I3
sS'visar'
p3670
I5
sS'Nyhet'
p3671
I3
sS'Sundholm'
p3672
I1
sS'Sun'
p3673
I6
sS'farrov'
p3674
I2
sS'viktigare'
p3675
I6
sS'galna'
p3676
I3
sS'Lista'
p3677
I3
sS'ttsorganisation'
p3678
I1
sS'fattigdom'
p3679
I2
sS'bosse'
p3680
I2
sS'byggde'
p3681
I1
sS'rdinnorna'
p3682
I5
sS'puffkradan'
p3683
I1
sS'Ekonomi'
p3684
I6
sS'Familjens'
p3685
I1
sS'dataSrc'
p3686
I12
sS'Vikt'
p3687
I9
sS'Tommy'
p3688
I1
sS'gspatrullen'
p3689
I3
sS'serif'
p3690
I9
sS'Kontakt'
p3691
I3
sS'link'
p3692
I109
sS'Varning'
p3693
I6
sS'jacka'
p3694
I2
sS'SolarFlarePhoto'
p3695
I2
sS'createElement'
p3696
I6
sS'line'
p3697
I40
sS'dubbelmordet'
p3698
I2
sS'kontantkort'
p3699
I2
sS'smyga'
p3700
I1
sS'lyxklockanbred'
p3701
I1
sS'info'
p3702
I60
sS'fader'
p3703
I2
sS'Stadsliv'
p3704
I3
sS'prev'
p3705
I1
sS'utf'
p3706
I3
sS'utg'
p3707
I2
sS'Sydv'
p3708
I1
sS'svenskahjaltar'
p3709
I21
sS'letsdeal'
p3710
I9
sS'ut'
p3711
I25
sS'Twitter'
p3712
I4
sS'dom'
p3713
I6
sS'Kerstins'
p3714
I1
sS'Svenska'
p3715
I8
sS'ur'
p3716
I6
sS'rnan'
p3717
I14
sS'polisbilen'
p3718
I4
sS'tolka'
p3719
I1
sS'fick'
p3720
I13
sS'frnt'
p3721
I2
sS'z'
p3722
I18
sS'latestView'
p3723
I18
sS'abPlusStreamerTip'
p3724
I6
sS'ditt'
p3725
I7
sS'snyggare'
p3726
I2
sS'titel'
p3727
I1
sS'livs'
p3728
I1
sS'Tv'
p3729
I16
sS'Prisv'
p3730
I2
sS'Ica'
p3731
I1
sS'Kristian'
p3732
I2
sS'lyx'
p3733
I2
sS'mouseup'
p3734
I3
sS'Ice'
p3735
I2
sS'Sexologen'
p3736
I2
sS'singlarna'
p3737
I3
sS'Tj'
p3738
I6
sS'checked'
p3739
I12
sS'Nya'
p3740
I6
sS'underhallning'
p3741
I18
sS'abTvArticlePlayerUserInfoMessage'
p3742
I3
sS'as'
p3743
I3
sS'Ta'
p3744
I2
sS'Alshammar'
p3745
I2
sS'Kampsport'
p3746
I1
sS'resdagboken'
p3747
I9
sS'Mat'
p3748
I8
sS'nad'
p3749
I2
sS'morotstjej'
p3750
I2
sS'TV'
p3751
I142
sS'eller'
p3752
I4
sS'TT'
p3753
I6
sS'TR'
p3754
I3
sS'Detta'
p3755
I1
sS'nar'
p3756
I4
sS'application'
p3757
I15
sS'nav'
p3758
I3
sS'ellen'
p3759
I2
sS'dunderkurer'
p3760
I2
sS'tunnadatorn'
p3761
I2
sS'mobileVideoUrl'
p3762
I1
sS'raderw'
p3763
I1
sS'prognos'
p3764
I1
sS'lucida'
p3765
I3
sS'Detaljen'
p3766
I1
sS'Case'
p3767
I2
sS'abStreamerColumnist'
p3768
I6
sS'AB'
p3769
I112
sS'halvera'
p3770
I1
sS'AD'
p3771
I299
sS'gaddningen'
p3772
I1
sS'kord'
p3773
I12
sS'loppet'
p3774
I2
sS'tittarna'
p3775
I4
sS'robots'
p3776
I3
sS'Bingolottos'
p3777
I3
sS'asexualitet'
p3778
I2
sS'mittpuff'
p3779
I29
sS'sundholm'
p3780
I1
sS'tvPlayer'
p3781
I2
sS'viktklubb'
p3782
I9
sS'riskerar'
p3783
I1
sS'je'
p3784
I3
sS'Hj'
p3785
I10
sS'Byss'
p3786
I2
sS'talades'
p3787
I1
sS'lang'
p3788
I3
sS'livescore'
p3789
I3
sS'Ab'
p3790
I1
sS'e'
p3791
I719
sS'Ad'
p3792
I3
sS'panoramanere'
p3793
I6
sS'Kanal'
p3794
I15
sS'nordeahus'
p3795
I2
sS'Am'
p3796
I2
sS'abSymbShop'
p3797
I24
sS'An'
p3798
I2
sS'dramatiken'
p3799
I2
sS'nyttig'
p3800
I2
sS'marsetta'
p3801
I1
sS'abToplistDate'
p3802
I30
sS'AudiA'
p3803
I2
sS'gehet'
p3804
I2
sS'kval'
p3805
I2
sS'svt'
p3806
I37
sS'requires'
p3807
I1
sS'scroll'
p3808
I30
sS'Signerat'
p3809
I1
sS'brottsutredning'
p3810
I1
sS'Lars'
p3811
I4
sS'edc'
p3812
I1
sS'eda'
p3813
I3
sS'gs'
p3814
I3
sS'gr'
p3815
I7
sS'prenumerera'
p3816
I6
sS'kanal'
p3817
I304
sS'Experten'
p3818
I2
sS'jliga'
p3819
I3
sS'Uppdatera'
p3820
I8
sS'Trodde'
p3821
I2
sS'thomas'
p3822
I2
sS'Wirf'
p3823
I1
sS'stopp'
p3824
I2
sS'ge'
p3825
I11
sS'smyger'
p3826
I2
sS'Redbergslids'
p3827
I2
sS'addyn'
p3828
I51
sS'ga'
p3829
I26
sS'go'
p3830
I55
sS'golf'
p3831
I3
sS'gl'
p3832
I3
sS'gi'
p3833
I3
sS'jligt'
p3834
I2
sS'Vatikanen'
p3835
I1
sS'abAdPlacementPanoramanere'
p3836
I3
sS'cdb'
p3837
I3
sS'ttnyheter'
p3838
I39
sS'bostadsinbrotten'
p3839
I1
sS'landslaget'
p3840
I7
sS'lsvarvave'
p3841
I1
sS'send'
p3842
I6
sS'stormning'
p3843
I2
sS'migr'
p3844
I2
sS'rsen'
p3845
I6
sS'finansiell'
p3846
I2
sS'abHeaderArticle'
p3847
I3
sS'Nov'
p3848
I9
sS'articleUrl'
p3849
I2
sS'gb'
p3850
I14
sS'pengarna'
p3851
I3
sS'vapen'
p3852
I1
sS'tidningwell'
p3853
I2
sS'ddigaste'
p3854
I2
sS'vla'
p3855
I3
sS'bilblogg'
p3856
I1
sS'Bull'
p3857
I1
sS'Dewani'
p3858
I2
sS'Carey'
p3859
I2
sS'brudbrollop'
p3860
I3
sS'P'
p3861
I17
sS'Siffrorna'
p3862
I2
sS'facebook'
p3863
I22
sS'xtsd'
p3864
I3
sS'hederlig'
p3865
I1
sS'Solresortillfyndpris'
p3866
I2
sS'Medstop'
p3867
I6
sS'Markus'
p3868
I4
sS'helgen'
p3869
I1
sS'abMultiColPadderLast'
p3870
I37
sS'comebacken'
p3871
I1
sS'saljsida'
p3872
I6
sS'veh'
p3873
I1
sS'leftNavigationMainMenuRoot'
p3874
I3
sS'button'
p3875
I29
sS'NOMINERA'
p3876
I3
sS'tre'
p3877
I3
sS'ESCENIC'
p3878
I60
sS'jobbet'
p3879
I5
sS'Talking'
p3880
I3
sS'vagnen'
p3881
I2
sS'Pekguls'
p3882
I1
sS'javascript'
p3883
I239
sS'akut'
p3884
I1
sS'FFF'
p3885
I3
sS'colC'
p3886
I1
sS'CANAL'
p3887
I12
sS'janhelin'
p3888
I15
sS'ndning'
p3889
I2
sS'Dental'
p3890
I1
sS'Anni'
p3891
I2
sS'Maguire'
p3892
I1
sS'Moderaterna'
p3893
I2
sS'Blu'
p3894
I4
sS'rre'
p3895
I10
sS'extradata'
p3896
I3
sS'innerHTML'
p3897
I12
sS'DTD'
p3898
I6
sS'Bli'
p3899
I6
sS'laktarna'
p3900
I2
sS'rlden'
p3901
I12
sS'flv'
p3902
I1
sS'click'
p3903
I15
sS'Kultur'
p3904
I9
sS'trisslotter'
p3905
I3
sS'index'
p3906
I22
sS'flaggapengar'
p3907
I2
sS'JUST'
p3908
I2
sS'abTvArticlePlayerHeadlineInner'
p3909
I1
sS'opaque'
p3910
I1
sS'Flyttfirman'
p3911
I1
sS'wireframe'
p3912
I9
sS'http'
p3913
I3359
sS'Alam'
p3914
I3
sS'sagt'
p3915
I1
sS'Linn'
p3916
I4
sS'waiting'
p3917
I3
sS'krig'
p3918
I3
sS'wwwapp'
p3919
I6
sS'tackat'
p3920
I2
sS'Jorden'
p3921
I2
sS'kundkraft'
p3922
I9
sS'America'
p3923
I1
sS'gamle'
p3924
I1
sS'serviceee'
p3925
I3
sS'body'
p3926
I9
sS'uppfann'
p3927
I2
sS'utl'
p3928
I2
sS'degree'
p3929
I3
sS'bfb'
p3930
I4
sS'timra'
p3931
I8
sS'lyxigaste'
p3932
I2
sS'spacing'
p3933
I33
sS'Foto'
p3934
I12
sS'maffians'
p3935
I2
sS'Dietisten'
p3936
I1
sS'Slipp'
p3937
I2
sS'logout'
p3938
I3
sS'bensinmackar'
p3939
I1
sS'ryska'
p3940
I1
sS'Offren'
p3941
I2
sS'Fick'
p3942
I3
sS'videoGeoCode'
p3943
I1
sS'obegr'
p3944
I3
sS'politikerkollenNY'
p3945
I3
sS'sina'
p3946
I8
sS'haschbeslag'
p3947
I1
sS'Pippas'
p3948
I2
sS'rbjud'
p3949
I2
sS'leftNavigationHiddenSubmenu'
p3950
I3
sS'rlekstest'
p3951
I2
sS'allastudier'
p3952
I12
sS'ciderkung'
p3953
I1
sS'Pokerutmaningen'
p3954
I3
sS'reaktionerna'
p3955
I1
sS'rde'
p3956
I4
sS'tillsatser'
p3957
I2
sS'nsbeh'
p3958
I2
sS'hyllas'
p3959
I2
sS'rda'
p3960
I6
sS'tesplatsen'
p3961
I6
sS'generalscripts'
p3962
I3
sS'menu'
p3963
I18
sS'miljard'
p3964
I4
sS'skaffa'
p3965
I1
sS'abHeadlineBluelink'
p3966
I7
sS'Top'
p3967
I2
sS'testiklar'
p3968
I1
sS'Vet'
p3969
I2
sS'genhet'
p3970
I1
sS'FT'
p3971
I3
sS'Oscar'
p3972
I2
sS'lappar'
p3973
I6
sS'tverk'
p3974
I1
sS'adaptlogic'
p3975
I3
sS'verlever'
p3976
I2
sS'app'
p3977
I3
sS'hennes'
p3978
I6
sS'SMS'
p3979
I12
sS'Rekordmannens'
p3980
I1
sS'zlatan'
p3981
I25
sS'Klart'
p3982
I3
sS'reda'
p3983
I2
sS'Farmen'
p3984
I4
sS'apo'
p3985
I1
sS'motor'
p3986
I7
sS'ledarkronika'
p3987
I18
sS'ngar'
p3988
I2
sS'Skapar'
p3989
I1
sS'Vem'
p3990
I3
sS'tools'
p3991
I3
sS'gateway'
p3992
I3
sS'fef'
p3993
I7
sS'saekerhetsbugg'
p3994
I4
sS'Fr'
p3995
I8
sS'Starka'
p3996
I2
sS'aftonbladetwebshop'
p3997
I51
sS'proffsigare'
p3998
I1
sS'fel'
p3999
I5
sS'annonswebb'
p4000
I3
sS'hemlig'
p4001
I1
sS'misst'
p4002
I2
sS'next'
p4003
I2
sS'Blondie'
p4004
I1
sS'Energisn'
p4005
I2
sS'appendTo'
p4006
I9
sS'Superprylen'
p4007
I2
sS'Hur'
p4008
I9
sS'telnumber'
p4009
I3
sS'length'
p4010
I9
sS'personer'
p4011
I2
sS'panel'
p4012
I12
sS'vinterresa'
p4013
I2
sS'sort'
p4014
I48
sS'containerDivId'
p4015
I1
sS'Syriens'
p4016
I2
sS'src'
p4017
I693
sS'Wahlroos'
p4018
I2
sS'mostWatchedView'
p4019
I21
sS'siffror'
p4020
I17
sS'factor'
p4021
I1
sS'uniqueSectionName'
p4022
I3
sS'visibility'
p4023
I1
sS'Gul'
p4024
I1
sS'leftNavigationThirdLevel'
p4025
I3
sS'Nasa'
p4026
I2
sS'travprogram'
p4027
I1
sS'galet'
p4028
I1
sS'Studenter'
p4029
I2
sS'Berlusconi'
p4030
I3
sS'ttar'
p4031
I1
sS'substring'
p4032
I15
sS'ALL'
p4033
I1
sS'derna'
p4034
I1
sS'f'
p4035
I544
sS'this'
p4036
I72
sS'dubbelmord'
p4037
I1
sS'acd'
p4038
I3
sS'Ja'
p4039
I3
sS'rbudstiden'
p4040
I2
sS'Starkt'
p4041
I6
sS'peka'
p4042
I1
sS'onsdag'
p4043
I3
sS'Framr'
p4044
I1
sS'avsl'
p4045
I21
sS'streamer'
p4046
I3
sS'artisterna'
p4047
I2
sS'tar'
p4048
I70
sS'ngaren'
p4049
I2
sS'roda'
p4050
I2
sS'artiklar'
p4051
I9
sS'etta'
p4052
I17
sS'bildmatch'
p4053
I3
sS'bananas'
p4054
I1
sS'Aag'
p4055
I2
sS'high'
p4056
I1
sS'ningar'
p4057
I2
sS'chockade'
p4058
I4
sS'tag'
p4059
I36
sS'Soffan'
p4060
I2
sS'tab'
p4061
I24
sS'SLUM'
p4062
I2
sS'Deras'
p4063
I1
sS'Magic'
p4064
I2
sS'tan'
p4065
I1
sS'blodiga'
p4066
I1
sS'Sundstr'
p4067
I1
sS'snyggaste'
p4068
I1
sS'abFooterEditorsContainer'
p4069
I3
sS'nojesliv'
p4070
I3
sS'talar'
p4071
I1
sS'NHL'
p4072
I2
sS'aff'
p4073
I1
sS'Play'
p4074
I6
sS'barnvagnar'
p4075
I2
sS'superwide'
p4076
I3
sS'internationella'
p4077
I1
sS'polisens'
p4078
I2
sS'sig'
p4079
I22
sS'radioHour'
p4080
I6
sS'sid'
p4081
I4
sS'Skyldig'
p4082
I1
sS'glittra'
p4083
I2
sS'delar'
p4084
I1
sS'AmexGoldCardHOOG'
p4085
I1
sS'Ponnyakuten'
p4086
I2
sS'Robin'
p4087
I2
sS'jubelidiot'
p4088
I1
sS'profile'
p4089
I6
sS'amerika'
p4090
I6
sS'klar'
p4091
I2
sS'inse'
p4092
I2
sS'monica'
p4093
I1
sS'fram'
p4094
I8
sS'Marple'
p4095
I2
sS'British'
p4096
I1
sS'scalable'
p4097
I3
sS'abToplistHeaderMostWatched'
p4098
I9
sS'Flashforward'
p4099
I2
sS'linkpulse'
p4100
I55
sS'diskussion'
p4101
I2
sS'fotboll'
p4102
I112
sS'Inredning'
p4103
I2
sS'Partnersajter'
p4104
I3
sS'gammal'
p4105
I5
sS'abQuestionText'
p4106
I3
sS'ller'
p4107
I6
sS'xmlns'
p4108
I6
sS'livegranskningen'
p4109
I2
sS'llet'
p4110
I3
sS'bind'
p4111
I3
sS'ombildningen'
p4112
I2
sS'After'
p4113
I1
sS'Bloggportalen'
p4114
I3
sS'vanster'
p4115
I1
sS'afe'
p4116
I4
sS'kungliga'
p4117
I2
sS'mouseover'
p4118
I6
sS'Ibras'
p4119
I1
sS'tarmsjukdom'
p4120
I1
sS'borde'
p4121
I2
sS'handboll'
p4122
I12
sS'Hawaiis'
p4123
I1
sS'magrutor'
p4124
I2
sS'spioner'
p4125
I2
sS'timmar'
p4126
I1
sS'dansk'
p4127
I1
sS'ifrm'
p4128
I8
sS'Fredag'
p4129
I2
sS'mnbrist'
p4130
I2
sS'Smith'
p4131
I6
sS'Barnkanalen'
p4132
I3
sS'symbols'
p4133
I5
sS'eeba'
p4134
I1
sS'Fotbollsf'
p4135
I2
sS'llopet'
p4136
I2
sS'Bron'
p4137
I2
sS'createTab'
p4138
I48
sS'presidenten'
p4139
I1
sS'Fulaste'
p4140
I1
sS'Match'
p4141
I10
sS'earlier'
p4142
I3
sS'lg'
p4143
I2
sS'ld'
p4144
I3
sS'kunde'
p4145
I1
sS'themeBoxMegaHeaderLogo'
p4146
I9
sS'abTeaser'
p4147
I394
sS'till'
p4148
I89
sS'Updown'
p4149
I1
sS'll'
p4150
I20
sS'lj'
p4151
I19
sS'TASTELINE'
p4152
I4
sS'li'
p4153
I1024
sS'lv'
p4154
I6
sS'Eklund'
p4155
I1
sS'lt'
p4156
I3
sS'kerhets'
p4157
I2
sS'ls'
p4158
I1
sS'lp'
p4159
I16
sS'Nyheterna'
p4160
I4
sS'datorn'
p4161
I3
sS'nteavdrag'
p4162
I1
sS'dess'
p4163
I1
sS'Podcast'
p4164
I3
sS'More'
p4165
I3
sS'pixel'
p4166
I3
sS'ly'
p4167
I15
sS'dad'
p4168
I2
sS'recept'
p4169
I3
sS'verkligen'
p4170
I2
sS'dag'
p4171
I14
sS'ombildade'
p4172
I2
sS'spela'
p4173
I27
sS'barns'
p4174
I3
sS'auto'
p4175
I12
sS'fler'
p4176
I8
sS'testat'
p4177
I2
sS'nade'
p4178
I9
sS'Two'
p4179
I1
sS'abTeaserColumnist'
p4180
I6
sS'spelv'
p4181
I2
sS'Ennart'
p4182
I3
sS'Supernygga'
p4183
I2
sS'brand'
p4184
I1
sS'anorexi'
p4185
I1
sS'ITA'
p4186
I1
sS'onAvailable'
p4187
I6
sS'Strandv'
p4188
I4
sS'Stort'
p4189
I3
sS'ldrarna'
p4190
I1
sS'transparent'
p4191
I7
sS'FIRST'
p4192
I3
sS'ebec'
p4193
I2
sS'spelbranschen'
p4194
I2
sS'Redaktionschefer'
p4195
I3
sS'laptopen'
p4196
I1
sS'Pengarna'
p4197
I2
sS'komma'
p4198
I5
sS'noje'
p4199
I74
sS'sin'
p4200
I13
sS'gangmordsbalken'
p4201
I1
sS'theory'
p4202
I3
sS'trav'
p4203
I22
sS'mode'
p4204
I52
sS'talang'
p4205
I1
sS'Marios'
p4206
I1
sS'abAdArea'
p4207
I66
sS'Biltester'
p4208
I1
sS'slentrian'
p4209
I6
sS'Dragonfly'
p4210
I4
sS'Ghost'
p4211
I2
sS'kronor'
p4212
I13
sS'mediciner'
p4213
I2
sS'STAR'
p4214
I15
sS'karnevalen'
p4215
I1
sS'gungar'
p4216
I2
sS'bbcaab'
p4217
I2
sS'flyg'
p4218
I4
sS'ldkn'
p4219
I2
sS'bdbf'
p4220
I2
sS'Stieg'
p4221
I2
sS'meta'
p4222
I30
sS'static'
p4223
I3
sS'randen'
p4224
I1
sS'intresset'
p4225
I2
sS'mannen'
p4226
I4
sS'programmet'
p4227
I8
sS'skor'
p4228
I1
sS'special'
p4229
I15
sS'ldigt'
p4230
I4
sS'category'
p4231
I3
sS'elitserienlive'
p4232
I2
sS'Austr'
p4233
I2
sS'NUMRET'
p4234
I2
sS'leftNavigationBottomMenu'
p4235
I3
sS'rklaring'
p4236
I1
sS'ouml'
p4237
I78
sS'rer'
p4238
I2
sS'nsad'
p4239
I3
sS'inch'
p4240
I1
sS'filmerna'
p4241
I2
sS'playerChapterStart'
p4242
I1
sS'ret'
p4243
I2
sS'svar'
p4244
I2
sS'ren'
p4245
I5
sS'rel'
p4246
I84
sS'ssan'
p4247
I2
sS'deras'
p4248
I5
sS'korsord'
p4249
I3
sS'minskar'
p4250
I1
sS'abPlusTopToolbarLoggedInCenter'
p4251
I3
sS'vinter'
p4252
I3
sS'Aniston'
p4253
I1
sS'ecf'
p4254
I3
sS'ece'
p4255
I15
sS'kropp'
p4256
I2
sS'krade'
p4257
I2
sS'eca'
p4258
I1
sS'abWindowOpen'
p4259
I4
sS'getFullYear'
p4260
I3
sS'liGI'
p4261
I3
sS'serverNowDate'
p4262
I1
sS'lkommen'
p4263
I1
sS'vt'
p4264
I1
sS'Marouane'
p4265
I1
sS'Lyxrea'
p4266
I1
sS'ledarbloggen'
p4267
I3
sS'latest'
p4268
I18
sS'bilden'
p4269
I1
sS'Grovt'
p4270
I1
sS'activeIndexChange'
p4271
I3
sS'domare'
p4272
I1
sS'floppar'
p4273
I1
sS'lts'
p4274
I2
sS'backwards'
p4275
I3
sS'indent'
p4276
I6
sS'Webbtv'
p4277
I5
sS'g'
p4278
I61
sS'Teneriffa'
p4279
I9
sS'politikern'
p4280
I1
sS'robertcollin'
p4281
I1
sS'Anrell'
p4282
I1
sS'Arsenal'
p4283
I1
sS'skrattretande'
p4284
I1
sS'Ochs'
p4285
I2
sS'lta'
p4286
I2
sS'lte'
p4287
I5
sS'Ser'
p4288
I1
sS'aos'
p4289
I49
sS'Fredrik'
p4290
I8
sS'letsdance'
p4291
I3
sS'Karatefylla'
p4292
I2
sS'isPremiumTeaser'
p4293
I3
sS'skada'
p4294
I1
sS'Tjej'
p4295
I1
sS'Douglas'
p4296
I1
sS'abHeaderExtraLogo'
p4297
I3
sS'Gunnes'
p4298
I1
sS'ihj'
p4299
I3
sS'formel'
p4300
I4
sS'set'
p4301
I15
sS'programkommission'
p4302
I1
sS'protesterna'
p4303
I1
sS'Paradox'
p4304
I2
sS'Kvinnan'
p4305
I2
sS'abTeaserSmall'
p4306
I24
sS'fjol'
p4307
I2
sS'mordplatsen'
p4308
I2
sS'ser'
p4309
I6
sS'inlast'
p4310
I3
sS'Irak'
p4311
I1
sS'sekundsnabba'
p4312
I1
sS'Iran'
p4313
I2
sS'Farc'
p4314
I1
sS'leder'
p4315
I5
sS'ttecreepy'
p4316
I2
sS'unknown'
p4317
I3
sS'BILDEXTRA'
p4318
I4
sS'riga'
p4319
I2
sS'they'
p4320
I3
sS'rige'
p4321
I8
sS'talent'
p4322
I2
sS'attack'
p4323
I3
sS'boken'
p4324
I1
sS'Klick'
p4325
I12
sS'dygnet'
p4326
I3
sS'kandisar'
p4327
I1
sS'ag'
p4328
I52
sS'final'
p4329
I2
sS'demonstrationer'
p4330
I1
sS'valde'
p4331
I2
sS'blivit'
p4332
I4
sS'gear'
p4333
I2
sS'Dahlborg'
p4334
I2
sS'Bind'
p4335
I2
sS'ldrev'
p4336
I4
sS'Stockholmsterroristen'
p4337
I1
sS'StoryServer'
p4338
I9
sS'Kl'
p4339
I1
sS'webcommerce'
p4340
I5
sS'R'
p4341
I22
sS'Per'
p4342
I2
sS'expiresDays'
p4343
I3
sS'fafaf'
p4344
I2
sS'rst'
p4345
I12
sS'sex'
p4346
I8
sS'dslarv'
p4347
I1
sS'abStreamerMedium'
p4348
I12
sS'rsr'
p4349
I15
sS'rss'
p4350
I36
sS'Lager'
p4351
I3
sS'retag'
p4352
I1
sS'beh'
p4353
I4
sS'Eriksson'
p4354
I2
sS'Binclusive'
p4355
I3
sS'Laget'
p4356
I2
sS'analytics'
p4357
I3
sS'KK'
p4358
I1
sS'prova'
p4359
I2
sS'brusten'
p4360
I1
sS'reagerar'
p4361
I1
sS'beg'
p4362
I3
sS'bed'
p4363
I2
sS'tommy'
p4364
I1
sS'Salander'
p4365
I4
sS'abArtCommentsCountTeaser'
p4366
I229
sS'ber'
p4367
I10
sS'Bolibompa'
p4368
I3
sS'OMX'
p4369
I3
sS'bet'
p4370
I3
sS'vecka'
p4371
I10
sS'flashSrc'
p4372
I1
sS'ttning'
p4373
I3
sS'false'
p4374
I38
sS'clip'
p4375
I12
sS'Kryssning'
p4376
I2
sS'blixtf'
p4377
I2
sS'taket'
p4378
I1
sS'flyttar'
p4379
I2
sS'sttyska'
p4380
I2
sS'kombi'
p4381
I1
sS'Secret'
p4382
I1
sS'blir'
p4383
I12
sS'ringen'
p4384
I6
sS'have'
p4385
I3
sS'idag'
p4386
I8
sS'Kundkraft'
p4387
I3
sS'Brud'
p4388
I3
sS'border'
p4389
I168
sS'Pan'
p4390
I2
sS'kolumnister'
p4391
I34
sS'sk'
p4392
I20
sS'kert'
p4393
I3
sS'eurolotto'
p4394
I8
sS'min'
p4395
I23
sS'instruktioner'
p4396
I1
sS'Njutning'
p4397
I2
sS'Fler'
p4398
I10
sS'mig'
p4399
I9
sS'mix'
p4400
I2
sS'testade'
p4401
I2
sS'Och'
p4402
I1
sS'abReloadSticky'
p4403
I3
sS'orkar'
p4404
I1
sS'dare'
p4405
I1
sS'svensken'
p4406
I1
sS'lvatten'
p4407
I2
sS'mille'
p4408
I3
sS'YUILoader'
p4409
I3
sS'Ois'
p4410
I4
sS'Sydamerika'
p4411
I1
sS'tning'
p4412
I2
sS'generalcss'
p4413
I3
sS'ddad'
p4414
I1
sS'TVNU'
p4415
I3
sS'J'
p4416
I5
sS'McGuire'
p4417
I2
sS'rket'
p4418
I1
sS'rbannade'
p4419
I1
sS'gsgatan'
p4420
I3
sS'eae'
p4421
I9
sS'temavarmeenergi'
p4422
I3
sS'initTopWatched'
p4423
I9
sS'pageName'
p4424
I3
sS'lust'
p4425
I1
sS'Trav'
p4426
I4
sS'terrorcell'
p4427
I2
sS'objId'
p4428
I3
sS'Bjurmans'
p4429
I2
sS'sedan'
p4430
I6
sS'Retrom'
p4431
I2
sS'rken'
p4432
I1
sS'gallery'
p4433
I11
sS'Blogg'
p4434
I15
sS'monicagunne'
p4435
I5
sS'planerade'
p4436
I1
sS'dummyPlayerUserInfoMessageDivId'
p4437
I1
sS'Kicka'
p4438
I2
sS'snygg'
p4439
I1
sS'rtan'
p4440
I2
sS'republikanska'
p4441
I3
sS'SiteCatalyst'
p4442
I6
sS'mtv'
p4443
I15
sS'bred'
p4444
I4
sS'bitchiga'
p4445
I1
sS'JPG'
p4446
I16
sS'generna'
p4447
I1
sS'indd'
p4448
I25
sS'ttelse'
p4449
I6
sS'leftNavigationStartpage'
p4450
I3
sS'entreprenor'
p4451
I5
sS'urs'
p4452
I2
sS'Kunskapskanalen'
p4453
I6
sS'looken'
p4454
I3
sS'its'
p4455
I2
sS'mostReadTab'
p4456
I6
sS'Lediga'
p4457
I6
sS'abImageColumnRight'
p4458
I87
sS'selection'
p4459
I3
sS'Handboll'
p4460
I1
sS'Mats'
p4461
I2
sS'kg'
p4462
I3
sS'dba'
p4463
I2
sS'text'
p4464
I319
sS'dbc'
p4465
I2
sS'dbb'
p4466
I6
sS'dbe'
p4467
I2
sS'chapters'
p4468
I3
sS'dbf'
p4469
I2
sS'terrortr'
p4470
I1
sS'Grimm'
p4471
I1
sS'pilram'
p4472
I26
sS'Under'
p4473
I4
sS'choklad'
p4474
I2
sS'begpilram'
p4475
I2
sS'rsmobb'
p4476
I1
sS'bj'
p4477
I3
sS'passa'
p4478
I1
sS'Math'
p4479
I6
sS'rsatsande'
p4480
I2
sS'partners'
p4481
I1
sS'podcast'
p4482
I6
sS'nga'
p4483
I6
sS'jay'
p4484
I6
sS'filmen'
p4485
I3
sS'Jay'
p4486
I6
sS'jar'
p4487
I15
sS'skrevs'
p4488
I1
sS'barnkanalen'
p4489
I12
sS'Guide'
p4490
I2
sS'abInteractivePrefix'
p4491
I22
sS'rast'
p4492
I1
sS'Nordea'
p4493
I2
sS'Org'
p4494
I3
sS'filmer'
p4495
I8
sS'halsa'
p4496
I14
sS'combo'
p4497
I6
sS'herrkollektionen'
p4498
I1
sS'varit'
p4499
I9
sS'SMB'
p4500
I2
sS'satellite'
p4501
I1
sS'playerAutoStart'
p4502
I1
sS'mvikt'
p4503
I2
sS'Uppl'
p4504
I2
sS'Khao'
p4505
I2
sS'heta'
p4506
I2
sS'nvaro'
p4507
I1
sS'logga'
p4508
I1
sS'rger'
p4509
I2
sS'kollektion'
p4510
I3
sS'bluray'
p4511
I1
sS'Hegerfors'
p4512
I4
sS'Golf'
p4513
I3
sS'XHTML'
p4514
I3
sS'scrolling'
p4515
I9
sS'rnedring'
p4516
I1
sS'tankarna'
p4517
I2
sS'Itunes'
p4518
I3
sS'FNG'
p4519
I2
sS'toLowerCase'
p4520
I15
sS'New'
p4521
I3
sS'getAncestorByTagName'
p4522
I3
sS'Gick'
p4523
I5
sS'abPlusStreamerBecomeMember'
p4524
I3
sS'barnstjarnan'
p4525
I2
sS'Svensson'
p4526
I1
sS'Automatisk'
p4527
I1
sS'livsdr'
p4528
I1
sS'aec'
p4529
I2
sS'aee'
p4530
I8
sS'dallas'
p4531
I4
sS'nelly'
p4532
I4
sS'Victoria'
p4533
I1
sS'filminspelningen'
p4534
I1
sS'debuterade'
p4535
I2
sS'kusinen'
p4536
I2
sS'foreningen'
p4537
I3
sS'ebf'
p4538
I5
sS'ctxId'
p4539
I3
sS'Folmer'
p4540
I2
sS'framf'
p4541
I6
sS'svenske'
p4542
I1
sS'svimmade'
p4543
I1
sS'svenska'
p4544
I11
sS'priset'
p4545
I2
sS'kronisk'
p4546
I1
sS'beeb'
p4547
I1
sS'wtbt'
p4548
I3
sS'Fredliga'
p4549
I1
sS'Bild'
p4550
I2
sS'cacheData'
p4551
I12
sS'lotter'
p4552
I1
sS'Walk'
p4553
I4
sS'leftNavigationExpanded'
p4554
I3
sS'Lider'
p4555
I1
sS'Pl'
p4556
I7
sS'chansen'
p4557
I4
sS'hp'
p4558
I1
sS'Titta'
p4559
I1
sS'stats'
p4560
I21
sS'Sexig'
p4561
I4
sS'aftonbladetprod'
p4562
I3
sS'kulturbalk'
p4563
I2
sS'redan'
p4564
I5
sS'sectionId'
p4565
I1
sS'Daniele'
p4566
I1
sS'PC'
p4567
I2
sS'rikare'
p4568
I4
sS'apor'
p4569
I6
sS'ngmiljonklipp'
p4570
I2
sS'action'
p4571
I41
sS'vetat'
p4572
I2
sS'equiv'
p4573
I3
sS'thumbnail'
p4574
I2
sS'fullst'
p4575
I2
sS'raren'
p4576
I4
sS'Criminal'
p4577
I3
sS'Kontakta'
p4578
I8
sS'Helgonet'
p4579
I1
sS'kritisera'
p4580
I2
sS'reningen'
p4581
I3
sS'ismaskin'
p4582
I1
sS'finalen'
p4583
I2
sS'husmanskost'
p4584
I1
sS'enda'
p4585
I1
sS'amex'
p4586
I3
sS'job'
p4587
I16
sS'listan'
p4588
I2
sS'ende'
p4589
I3
sS'key'
p4590
I51
sS'selectedIndex'
p4591
I3
sS'Framst'
p4592
I2
sS'w'
p4593
I21
sS'solresorfyndl'
p4594
I2
sS'ker'
p4595
I2
sS'mage'
p4596
I12
sS'Josefine'
p4597
I1
sS'ovan'
p4598
I1
sS'userInfoAction'
p4599
I2
sS'hits'
p4600
I12
sS'kr'
p4601
I48
sS'abSearchStreamerTfContainer'
p4602
I6
sS'Skoj'
p4603
I2
sS'ett'
p4604
I25
sS'allsvenskan'
p4605
I14
sS'Flyg'
p4606
I3
sS'la'
p4607
I3
sS'tycker'
p4608
I3
sS'abAdsHeliosArticleKeywords'
p4609
I54
sS'minds'
p4610
I3
sS'lvbiografi'
p4611
I2
sS'sov'
p4612
I1
sS'kommunicerar'
p4613
I4
sS'Slogs'
p4614
I1
sS'Special'
p4615
I3
sS'vinterns'
p4616
I1
sS'tryggt'
p4617
I3
sS'varum'
p4618
I1
sS'puff'
p4619
I10
sS'fbml'
p4620
I3
sS'eece'
p4621
I2
sS'aa'
p4622
I2
sS'juryn'
p4623
I1
sS'toplist'
p4624
I39
sS'cm'
p4625
I2
sS'prepackage'
p4626
I14
sS'cc'
p4627
I11
sS'cb'
p4628
I13
sS'FR'
p4629
I3
sS'cf'
p4630
I9
sS'ce'
p4631
I16
sS'cd'
p4632
I6
sS'Los'
p4633
I4
sS'hotellbistron'
p4634
I2
sS'VIRTANEN'
p4635
I2
sS'arbete'
p4636
I3
sS'table'
p4637
I6
sS'Musik'
p4638
I3
sS'christer'
p4639
I2
sS'mailto'
p4640
I9
sS'Ger'
p4641
I3
sS'involverad'
p4642
I1
sS'kning'
p4643
I1
sS'klara'
p4644
I2
sS'outsider'
p4645
I12
sS'Get'
p4646
I11
sS'bbf'
p4647
I3
sS'hunters'
p4648
I2
sS'vinklubb'
p4649
I4
sS'Anst'
p4650
I2
sS'kerhetsstyrkor'
p4651
I1
sS'quiz'
p4652
I7
sS'klart'
p4653
I34
sS'Dahlkvist'
p4654
I4
sS'Sotsaker'
p4655
I6
sS'favoriterna'
p4656
I1
sS'grp'
p4657
I51
sS'indicators'
p4658
I3
sS'igen'
p4659
I7
sS'popul'
p4660
I2
sS'Verde'
p4661
I2
sS'Malena'
p4662
I4
sS'Katten'
p4663
I1
sS'abToolbarCenter'
p4664
I6
sS'Flora'
p4665
I3
sS'skjortan'
p4666
I2
sS'Sigge'
p4667
I3
sS'spelet'
p4668
I1
sS'honom'
p4669
I3
sS'jesbladet'
p4670
I38
sS'al'
p4671
I3
sS'personlig'
p4672
I1
sS'Instantiate'
p4673
I1
sS'spanien'
p4674
I14
sS'scoreradar'
p4675
I3
sS'ao'
p4676
I45
sS'storkombi'
p4677
I1
sS'hobby'
p4678
I1
sS'expertens'
p4679
I2
sS'Ricky'
p4680
I1
sS'MEJLA'
p4681
I3
sS'OBS'
p4682
I3
sS'storkovan'
p4683
I2
sS'filipfredrik'
p4684
I3
sS'And'
p4685
I4
sS'ttigheter'
p4686
I1
sS'Tuyas'
p4687
I1
sS'erbjudanden'
p4688
I31
sS'abTextBlock'
p4689
I36
sS'mega'
p4690
I1
sS'svaret'
p4691
I1
sS'multc'
p4692
I9
sS'plain'
p4693
I2
sS'align'
p4694
I45
sS'widescreen'
p4695
I3
sS'Anh'
p4696
I2
sS'rbr'
p4697
I2
sS'value'
p4698
I78
sS'Curiosity'
p4699
I2
sS'budgetnewyorkx'
p4700
I2
sS'Anv'
p4701
I3
sS'ar'
p4702
I6
sS'rnorna'
p4703
I6
sS'Faftonbladet'
p4704
I3
sS'megapackage'
p4705
I10
sS'perbjurman'
p4706
I6
sS'ljer'
p4707
I8
sS'svaren'
p4708
I2
sS'babyolja'
p4709
I1
sS'at'
p4710
I3
sS'va'
p4711
I2
sS'afae'
p4712
I1
sS'vd'
p4713
I10
sS'abLeftNavText'
p4714
I24
sS'AdaptLogic'
p4715
I9
sS'Panorama'
p4716
I6
sS'scheros'
p4717
I2
sS'Hade'
p4718
I4
sS'Dubai'
p4719
I4
sS'avr'
p4720
I1
sS'startsidan'
p4721
I55
sS'vp'
p4722
I1
sS'imageColumnDouble'
p4723
I26
sS'bg'
p4724
I34
sS'avdramatisera'
p4725
I1
sS'flygdata'
p4726
I1
sS'acer'
p4727
I13
sS'partner'
p4728
I317
sS'You'
p4729
I2
sS'avg'
p4730
I2
sS'sitt'
p4731
I7
sS'eltandborsten'
p4732
I1
sS'tjock'
p4733
I1
sS'utom'
p4734
I2
sS'let'
p4735
I3
sS'rligt'
p4736
I4
sS'abSectionPageTopGroup'
p4737
I3
sS'kningar'
p4738
I1
sS'pillerpengarpsykvard'
p4739
I6
sS'administration'
p4740
I31
sS'artiklarna'
p4741
I3
sS'member'
p4742
I3
sS'rren'
p4743
I2
sS'Gunnar'
p4744
I2
sS'bevakning'
p4745
I1
sS'Idol'
p4746
I5
sS'wolfgang'
p4747
I2
sS'Juholts'
p4748
I3
sS'android'
p4749
I3
sS'Walburga'
p4750
I1
sS'start'
p4751
I122
sS'Panel'
p4752
I9
sS'Marcus'
p4753
I2
sS'Krister'
p4754
I2
sS'balk'
p4755
I35
sS'Transitional'
p4756
I3
sS'gra'
p4757
I6
sS'Undersektion'
p4758
I3
sS'rankar'
p4759
I1
sS'MTV'
p4760
I5
sS'FIVE'
p4761
I1
sS'helst'
p4762
I1
sS'chock'
p4763
I1
sS'rfattare'
p4764
I1
sS'isGeneratingForFramework'
p4765
I3
sS'Veckans'
p4766
I2
sS'recommendations'
p4767
I18
sS'koper'
p4768
I2
sS'Sverigespelningar'
p4769
I2
sS'Manuel'
p4770
I2
sS'php'
p4771
I9
sS'sjukhus'
p4772
I1
sS'kallar'
p4773
I2
sS'Nyheter'
p4774
I45
sS'REMOVE'
p4775
I3
sS'ont'
p4776
I2
sS'protector'
p4777
I2
sS'vitare'
p4778
I1
sS'center'
p4779
I21
sS'abImageColumnWide'
p4780
I54
sS'albin'
p4781
I1
sS'i'
p4782
I264
sS'Spring'
p4783
I2
sS'Blatters'
p4784
I1
sS'Auschwitz'
p4785
I2
sS'object'
p4786
I14
sS'Rossi'
p4787
I1
sS'sett'
p4788
I9
sS'hoppas'
p4789
I3
sS'Blir'
p4790
I2
sS'Sporten'
p4791
I2
sS'wendela'
p4792
I75
sS'undvika'
p4793
I5
sS'position'
p4794
I54
sS'sexistiskt'
p4795
I1
sS'karlekosv'
p4796
I1
sS'aefe'
p4797
I1
sS'Vore'
p4798
I2
sS'inslaget'
p4799
I2
sS'NCIS'
p4800
I2
sS'BF'
p4801
I6
sS'Elsa'
p4802
I2
sS'svn'
p4803
I1
sS'BB'
p4804
I21
sS'xel'
p4805
I3
sS'tvnuchan'
p4806
I6
sS'ledarred'
p4807
I2
sS'weekend'
p4808
I5
sS'tystnad'
p4809
I6
sS'absolut'
p4810
I1
sS'not'
p4811
I6
sS'nedlagt'
p4812
I1
sS'logCenter'
p4813
I3
sS'xer'
p4814
I2
sS'tvnublock'
p4815
I3
sS'sofis'
p4816
I1
sS'nov'
p4817
I1
sS'mobileLiveUrlIphone'
p4818
I1
sS'Bahrain'
p4819
I2
sS'Be'
p4820
I31
sS'ckexemplet'
p4821
I1
sS'Drom'
p4822
I1
sS'cdfc'
p4823
I1
sS'ads'
p4824
I120
sS'riskkapital'
p4825
I1
sS'Mario'
p4826
I3
sS'abToolbarLoggedIn'
p4827
I3
sS'af'
p4828
I14
sS'smith'
p4829
I6
sS'Camila'
p4830
I1
sS'Bj'
p4831
I4
sS'natt'
p4832
I2
sS'ske'
p4833
I2
sS'ade'
p4834
I2
sS'ska'
p4835
I19
sS'dance'
p4836
I1
sS'ada'
p4837
I4
sS'abHeaderWeather'
p4838
I6
sS'logger'
p4839
I7
sS'Settman'
p4840
I3
sS'match'
p4841
I33
sS'Hits'
p4842
I3
sS'klimathotet'
p4843
I3
sS'Entourage'
p4844
I2
sS'balkong'
p4845
I2
sS'utan'
p4846
I5
sS'lekamen'
p4847
I1
sS'miljonbonus'
p4848
I1
sS'Aktuellt'
p4849
I1
sS'Tron'
p4850
I2
sS'testa'
p4851
I2
sS'historia'
p4852
I10
sS'Ponta'
p4853
I3
sS'five'
p4854
I2
sS'T'
p4855
I4
sS'nhet'
p4856
I1
sS'Puff'
p4857
I45
sS'NOTATION'
p4858
I21
sS'loader'
p4859
I7
sS'grotesk'
p4860
I2
sS'Wegerups'
p4861
I2
sS'lika'
p4862
I5
sS'lendo'
p4863
I9
sS'England'
p4864
I5
sS'like'
p4865
I9
sS'kompatibilitet'
p4866
I2
sS'Rosendal'
p4867
I2
sS'Paranormal'
p4868
I2
sS'loser'
p4869
I1
sS'Vill'
p4870
I3
sS'Micke'
p4871
I1
sS'gangsterv'
p4872
I2
sS'Kuskarnas'
p4873
I2
sS'getImageColumnPosition'
p4874
I6
sS'Anders'
p4875
I4
sS'fcf'
p4876
I1
sS'async'
p4877
I6
sS'Inspector'
p4878
I2
sS'Las'
p4879
I2
sS'medstop'
p4880
I12
sS'persist'
p4881
I3
sS'opensearch'
p4882
I3
sS'lager'
p4883
I6
sS'Hammarby'
p4884
I2
sS'vss'
p4885
I6
sS'Sub'
p4886
I3
sS'laget'
p4887
I1
sS'Bokliv'
p4888
I6
sS'GILLA'
p4889
I3
sS'bostadsr'
p4890
I2
sS'twitter'
p4891
I1
sS'vagardubligammal'
p4892
I8
sS'eltandborste'
p4893
I3
sS'Quiz'
p4894
I3
sS'SENATORS'
p4895
I2
sS'brunchbluffen'
p4896
I2
sS'Offert'
p4897
I3
sS'namn'
p4898
I4
sS'X'
p4899
I1
sS'jande'
p4900
I3
sS'Alex'
p4901
I4
sS'Sluta'
p4902
I1
sS'peter'
p4903
I1
sS'minsta'
p4904
I7
sS'transport'
p4905
I9
sS'tj'
p4906
I19
sS'Kackerlackor'
p4907
I1
sS'Jobbresan'
p4908
I3
sS'LINE'
p4909
I3
sS'miljonvinnare'
p4910
I1
sS'Green'
p4911
I2
sS'Mika'
p4912
I4
sS'overlay'
p4913
I1
sS'abSymbFy'
p4914
I3
sS'OSS'
p4915
I3
sS'extra'
p4916
I3
sS'februari'
p4917
I1
sS'ledarsidan'
p4918
I2
sS'elitsoldat'
p4919
I1
sS'rsta'
p4920
I19
sS'storst'
p4921
I1
sS'XiTi'
p4922
I6
sS'Taxonomy'
p4923
I3
sS'perfekta'
p4924
I2
sS'ROT'
p4925
I3
sS'ndelse'
p4926
I2
sS'preload'
p4927
I11
sS'Djurr'
p4928
I1
sS'TJUVTITTA'
p4929
I3
sS'ps'
p4930
I1
sS'indexOf'
p4931
I27
sS'mitt'
p4932
I7
sS'Gary'
p4933
I1
sS'dcc'
p4934
I4
sS'slut'
p4935
I2
sS'AbPlayer'
p4936
I1
sS'vinterjackor'
p4937
I14
sS'MINITEST'
p4938
I2
sS'host'
p4939
I12
sS'Slangen'
p4940
I2
sS'ndelsen'
p4941
I2
sS'sexscener'
p4942
I2
sS'ktarna'
p4943
I2
sS'Kumpaner'
p4944
I1
sS'Microsoft'
p4945
I10
sS'after'
p4946
I3
sS'dum'
p4947
I4
sS'ringhals'
p4948
I2
sS'lifestyle'
p4949
I5
sS'Spermastrejken'
p4950
I1
sS'TVPUFF'
p4951
I2
sS'nda'
p4952
I3
sS'abAdPlacementSticky'
p4953
I3
sS'Telenor'
p4954
I2
sS'or'
p4955
I9
sS'nde'
p4956
I3
sS'US'
p4957
I3
sS'Event'
p4958
I66
sS'Sveriges'
p4959
I21
sS'saker'
p4960
I5
sS'hier'
p4961
I3
sS'inited'
p4962
I18
sS'scenkl'
p4963
I1
sS'UD'
p4964
I2
sS'tjej'
p4965
I3
sS'UA'
p4966
I3
sS'create'
p4967
I3
sS'Amerikansk'
p4968
I4
sS'menunav'
p4969
I6
sS'Jesus'
p4970
I1
sS'Italien'
p4971
I3
sS'sarna'
p4972
I1
sS'Karin'
p4973
I3
sS'ck'
p4974
I3
sS'Ouml'
p4975
I5
sS'getAttribute'
p4976
I6
sS'vinnaren'
p4977
I3
sS'Neymar'
p4978
I4
sS'Canaria'
p4979
I9
sS'loner'
p4980
I6
sS'abAktiv'
p4981
I6
sS'yahooapis'
p4982
I6
sS'shoppa'
p4983
I8
sS'lsparkad'
p4984
I1
sS'smarta'
p4985
I3
sS'themeBoxMegaHeader'
p4986
I9
sS'abMultiCol'
p4987
I129
sS'debattamnen'
p4988
I2
sS'Supermobilen'
p4989
I1
sS'BRAZIL'
p4990
I2
sS'nypriset'
p4991
I2
sS'Balk'
p4992
I15
sS'Spela'
p4993
I1
sS'lurar'
p4994
I2
sS'resm'
p4995
I1
sS'gangsteretta'
p4996
I1
sS'revansch'
p4997
I2
sS'Horsemen'
p4998
I1
sS'vad'
p4999
I11
sS'inneh'
p5000
I3
sS'startsida'
p5001
I9
sS'propellerskadad'
p5002
I2
sS'Vegas'
p5003
I2
sS'afrika'
p5004
I6
sS'inner'
p5005
I3
sS'sarnas'
p5006
I4
sS'var'
p5007
I202
sS'addClass'
p5008
I6
sS'Stewart'
p5009
I1
sS'Champions'
p5010
I2
sS'oddset'
p5011
I4
sS'function'
p5012
I220
sS'husBOX'
p5013
I1
sS'rsons'
p5014
I1
sS'ELITSERIEN'
p5015
I1
sS'startpaket'
p5016
I2
sS'Star'
p5017
I1
sS'hr'
p5018
I12
sS'hs'
p5019
I6
sS'eac'
p5020
I3
sS'granne'
p5021
I2
sS'Det'
p5022
I25
sS'Scherman'
p5023
I4
sS'eaf'
p5024
I1
sS'hj'
p5025
I21
sS'hi'
p5026
I3
sS'aca'
p5027
I1
sS'klick'
p5028
I49
sS'bankchef'
p5029
I2
sS'BINARY'
p5030
I39
sS'ADTYPE'
p5031
I12
sS'overflow'
p5032
I25
sS'ha'
p5033
I16
sS'startknapp'
p5034
I3
sS'piller'
p5035
I5
sS'minuten'
p5036
I6
sS'karta'
p5037
I1
sS'mmen'
p5038
I1
sS'hittep'
p5039
I2
sS'svarta'
p5040
I10
sS'Gold'
p5041
I1
sS'vetenskap'
p5042
I13
sS'hjalpinfo'
p5043
I30
sS'j'
p5044
I8
sS'variations'
p5045
I6
sS'Zlatan'
p5046
I9
sS'volvo'
p5047
I6
sS'below'
p5048
I3
sS'lva'
p5049
I2
sS'dator'
p5050
I12
sS'CDATA'
p5051
I94
sS'JANDE'
p5052
I2
sS'Damaskus'
p5053
I1
sS'problem'
p5054
I1
sS'display'
p5055
I139
sS'rostning'
p5056
I3
sS'verraskar'
p5057
I2
sS'Modern'
p5058
I1
sS'pil'
p5059
I3
sS'Syrianskas'
p5060
I2
sS'int'
p5061
I3
sS'Red'
p5062
I2
sS'mustaschkampen'
p5063
I3
sS'farlig'
p5064
I1
sS'Waidelich'
p5065
I1
sS'offerId'
p5066
I3
sS'combine'
p5067
I3
sS'Leveranstid'
p5068
I2
sS'bjods'
p5069
I1
sS'produkter'
p5070
I13
sS'Allt'
p5071
I14
sS'josefine'
p5072
I2
sS'kvinnordodade'
p5073
I3
sS'budget'
p5074
I2
sS'inf'
p5075
I6
sS'abHeaderLogo'
p5076
I3
sS'girl'
p5077
I1
sS'inb'
p5078
I1
sS'abPlusStreamerLoginLink'
p5079
I3
sS'Landet'
p5080
I2
sS'ev'
p5081
I6
sS'abImageColumnLeft'
p5082
I90
sS'quot'
p5083
I2
sS'wrestlingstj'
p5084
I2
sS'moderaterna'
p5085
I2
sS'profilernas'
p5086
I1
sS'nyhetskunskaper'
p5087
I1
sS'relationer'
p5088
I37
sS'bondens'
p5089
I1
sS'chockr'
p5090
I1
sS'sikte'
p5091
I2
sS'kumpan'
p5092
I1
sS'saljer'
p5093
I2
sS'Street'
p5094
I1
sS'oas'
p5095
I8
sS'illa'
p5096
I1
sS'Naemi'
p5097
I1
sS'tvnul'
p5098
I6
sS'u'
p5099
I6
sS'uppdaterad'
p5100
I3
sS'endast'
p5101
I5
sS'dolda'
p5102
I1
sS'GRANSKAR'
p5103
I2
sS'Regionala'
p5104
I1
sS'repeat'
p5105
I316
sS'star'
p5106
I2
sS'baken'
p5107
I2
sS'insertBefore'
p5108
I3
sS'Letsdeal'
p5109
I3
sS'Ledare'
p5110
I6
sS'class'
p5111
I5671
sS'truckers'
p5112
I1
sS'abToMainContent'
p5113
I6
sS'truetalent'
p5114
I2
sS'Kustv'
p5115
I3
sS'stad'
p5116
I6
sS'abVnavWriteEttan'
p5117
I6
sS'onmouseover'
p5118
I15
sS'tiden'
p5119
I1
sS'Testament'
p5120
I2
sS'diskmaskiner'
p5121
I2
sS'stal'
p5122
I1
sS'else'
p5123
I72
sS'utm'
p5124
I399
sS'jumbon'
p5125
I2
sS'loket'
p5126
I1
sS'tter'
p5127
I8
sS'bcf'
p5128
I1
sS'martin'
p5129
I3
sS'dagenstidning'
p5130
I9
sS'Golden'
p5131
I2
sS'bcc'
p5132
I5
sS'prisnedsatt'
p5133
I2
sS'abIGSatellite'
p5134
I1
sS'tteg'
p5135
I1
sS'Lottas'
p5136
I6
sS'tidning'
p5137
I7
sS'videoLiveStartDate'
p5138
I1
sS'Fynda'
p5139
I2
sS'Trafikpoliserna'
p5140
I1
sS'tten'
p5141
I6
sS'blogg'
p5142
I62
sS'kulturredaktion'
p5143
I3
s.